(lp0
(S'        <Target_Identification>\r\n'
p1
S'            <name>(134340) Pluto</name>\r\n'
p2
S'            <alternate_designation>Pluto</alternate_designation>\r\n'
p3
S'            <alternate_designation>NAIF ID 999</alternate_designation>\r\n'
p4
S'            <type>Dwarf Planet</type>\r\n'
p5
S'            <description>\r\n'
p6
S'                NAIF ID: 999;\r\n'
p7
S'                Center of motion: Sun;\r\n'
p8
S'                LID of central body: urn:nasa:pds:context:target:sun.sun;\r\n'
p9
S'                NAIF ID of central body: 10.\r\n'
p10
S'            </description>\r\n'
p11
S'            <Internal_Reference>\r\n'
p12
S'                <lid_reference>urn:nasa:pds:context:target:dwarf_planet.134340_pluto</lid_reference>\r\n'
p13
S'                <reference_type>data_to_target</reference_type>\r\n'
p14
S'            </Internal_Reference>\r\n'
p15
S'        </Target_Identification>\r\n'
p16
tp17
a(S'        <Target_Identification>\r\n'
p18
S'            <name>2 Centauri</name>\r\n'
p19
S'            <alternate_designation>2 Cen</alternate_designation>\r\n'
p20
S'            <type>Star</type>\r\n'
p21
S'            <Internal_Reference>\r\n'
p22
S'                <lid_reference>urn:nasa:pds:context:target:star.2 _cen</lid_reference>\r\n'
p23
S'                <reference_type>data_to_target</reference_type>\r\n'
p24
S'            </Internal_Reference>\r\n'
p25
S'        </Target_Identification>\r\n'
p26
tp27
a(S'        <Target_Identification>\r\n'
p28
S'            <name>26 Tauri</name>\r\n'
p29
S'            <alternate_designation>26 Tau</alternate_designation>\r\n'
p30
S'            <type>Star</type>\r\n'
p31
S'            <Internal_Reference>\r\n'
p32
S'                <lid_reference>urn:nasa:pds:context:target:star.26_tau</lid_reference>\r\n'
p33
S'                <reference_type>data_to_target</reference_type>\r\n'
p34
S'            </Internal_Reference>\r\n'
p35
S'        </Target_Identification>\r\n'
p36
tp37
a(S'        <Target_Identification>\r\n'
p38
S'            <name>3 Centaurus</name>\r\n'
p39
S'            <alternate_designation>3 Cen</alternate_designation>\r\n'
p40
S'            <type>Star</type>\r\n'
p41
S'            <Internal_Reference>\r\n'
p42
S'                <lid_reference>urn:nasa:pds:context:target:star.3_cen</lid_reference>\r\n'
p43
S'                <reference_type>data_to_target</reference_type>\r\n'
p44
S'            </Internal_Reference>\r\n'
p45
S'        </Target_Identification>\r\n'
p46
tp47
a(S'        <Target_Identification>\r\n'
p48
S'            <name>30 Herculis</name>\r\n'
p49
S'            <alternate_designation>30 Her</alternate_designation>\r\n'
p50
S'            <type>Star</type>\r\n'
p51
S'            <Internal_Reference>\r\n'
p52
S'                <lid_reference>urn:nasa:pds:context:target:star.30_her</lid_reference>\r\n'
p53
S'                <reference_type>data_to_target</reference_type>\r\n'
p54
S'            </Internal_Reference>\r\n'
p55
S'        </Target_Identification>\r\n'
p56
tp57
a(S'        <Target_Identification>\r\n'
p58
S'            <name>30 Piscium</name>\r\n'
p59
S'            <alternate_designation>30 Psc</alternate_designation>\r\n'
p60
S'            <type>Star</type>\r\n'
p61
S'            <Internal_Reference>\r\n'
p62
S'                <lid_reference>urn:nasa:pds:context:target:star.30_psc</lid_reference>\r\n'
p63
S'                <reference_type>data_to_target</reference_type>\r\n'
p64
S'            </Internal_Reference>\r\n'
p65
S'        </Target_Identification>\r\n'
p66
tp67
a(S'        <Target_Identification>\r\n'
p68
S'            <name>56 Leonis</name>\r\n'
p69
S'            <alternate_designation>56 Leo</alternate_designation>\r\n'
p70
S'            <type>Star</type>\r\n'
p71
S'            <Internal_Reference>\r\n'
p72
S'                <lid_reference>urn:nasa:pds:context:target:star.56_leo</lid_reference>\r\n'
p73
S'                <reference_type>data_to_target</reference_type>\r\n'
p74
S'            </Internal_Reference>\r\n'
p75
S'        </Target_Identification>\r\n'
p76
tp77
a(S'        <Target_Identification>\r\n'
p78
S'            <name>78 Tauri</name>\r\n'
p79
S'            <alternate_designation>78 Tau</alternate_designation>\r\n'
p80
S'            <type>Star</type>\r\n'
p81
S'            <Internal_Reference>\r\n'
p82
S'                <lid_reference>urn:nasa:pds:context:target:star.78_tau</lid_reference>\r\n'
p83
S'                <reference_type>data_to_target</reference_type>\r\n'
p84
S'            </Internal_Reference>\r\n'
p85
S'        </Target_Identification>\r\n'
p86
tp87
a(S'        <Target_Identification>\r\n'
p88
S'            <name>Aegaeon</name>\r\n'
p89
S'            <alternate_designation>Saturn LIII (Aegaeon)</alternate_designation>\r\n'
p90
S'            <alternate_designation>S/2008 S 1</alternate_designation>\r\n'
p91
S'            <alternate_designation>NAIF ID 653</alternate_designation>\r\n'
p92
S'            <type>Satellite</type>\r\n'
p93
S'            <description>\r\n'
p94
S'                NAIF ID: 653;\r\n'
p95
S'                Center of motion: Saturn;\r\n'
p96
S'                LID of central body: urn:nasa:pds:context:target:planet.saturn;\r\n'
p97
S'                NAIF ID of central body: 699.\r\n'
p98
S'            </description>\r\n'
p99
S'            <Internal_Reference>\r\n'
p100
S'                <lid_reference>urn:nasa:pds:context:target:satellite.saturn.aegaeon</lid_reference>\r\n'
p101
S'                <reference_type>data_to_target</reference_type>\r\n'
p102
S'            </Internal_Reference>\r\n'
p103
S'        </Target_Identification>\r\n'
p104
tp105
a(S'        <Target_Identification>\r\n'
p106
S'            <name>Albiorix</name>\r\n'
p107
S'            <alternate_designation>Saturn XXVI (Albiorix)</alternate_designation>\r\n'
p108
S'            <alternate_designation>S/2000 S 11</alternate_designation>\r\n'
p109
S'            <alternate_designation>NAIF ID 626</alternate_designation>\r\n'
p110
S'            <type>Satellite</type>\r\n'
p111
S'            <description>\r\n'
p112
S'                NAIF ID: 626;\r\n'
p113
S'                Center of motion: Saturn;\r\n'
p114
S'                LID of central body: urn:nasa:pds:context:target:planet.saturn;\r\n'
p115
S'                NAIF ID of central body: 699.\r\n'
p116
S'            </description>\r\n'
p117
S'            <Internal_Reference>\r\n'
p118
S'                <lid_reference>urn:nasa:pds:context:target:satellite.saturn.albiorix</lid_reference>\r\n'
p119
S'                <reference_type>data_to_target</reference_type>\r\n'
p120
S'            </Internal_Reference>\r\n'
p121
S'        </Target_Identification>\r\n'
p122
tp123
a(S'        <Target_Identification>\r\n'
p124
S'            <name>Aldebaran</name>\r\n'
p125
S'            <alternate_designation>Alpha Tauri</alternate_designation>\r\n'
p126
S'            <alternate_designation>Alpha Tau</alternate_designation>\r\n'
p127
S'            <type>Star</type>\r\n'
p128
S'            <Internal_Reference>\r\n'
p129
S'                <lid_reference>urn:nasa:pds:context:target:star.alf_tau</lid_reference>\r\n'
p130
S'                <reference_type>data_to_target</reference_type>\r\n'
p131
S'            </Internal_Reference>\r\n'
p132
S'        </Target_Identification>\r\n'
p133
tp134
a(S'        <Target_Identification>\r\n'
p135
S'            <name>Algol</name>\r\n'
p136
S'            <alternate_designation>Beta Perei</alternate_designation>\r\n'
p137
S'            <alternate_designation>Beta Per</alternate_designation>\r\n'
p138
S'            <type>Star</type>\r\n'
p139
S'            <Internal_Reference>\r\n'
p140
S'                <lid_reference>urn:nasa:pds:context:target:star.bet_per</lid_reference>\r\n'
p141
S'                <reference_type>data_to_target</reference_type>\r\n'
p142
S'            </Internal_Reference>\r\n'
p143
S'        </Target_Identification>\r\n'
p144
tp145
a(S'        <Target_Identification>\r\n'
p146
S'            <name>Alpha Arae</name>\r\n'
p147
S'            <alternate_designation>Alpha Ara</alternate_designation>\r\n'
p148
S'            <type>Star</type>\r\n'
p149
S'            <Internal_Reference>\r\n'
p150
S'                <lid_reference>urn:nasa:pds:context:target:star.alf_ara</lid_reference>\r\n'
p151
S'                <reference_type>data_to_target</reference_type>\r\n'
p152
S'            </Internal_Reference>\r\n'
p153
S'        </Target_Identification>\r\n'
p154
tp155
a(S'        <Target_Identification>\r\n'
p156
S'            <name>Alpha Centauri</name>\r\n'
p157
S'            <alternate_designation>Alpha Cen</alternate_designation>\r\n'
p158
S'            <type>Star</type>\r\n'
p159
S'            <Internal_Reference>\r\n'
p160
S'                <lid_reference>urn:nasa:pds:context:target:star.alf_cen</lid_reference>\r\n'
p161
S'                <reference_type>data_to_target</reference_type>\r\n'
p162
S'            </Internal_Reference>\r\n'
p163
S'        </Target_Identification>\r\n'
p164
tp165
a(S'        <Target_Identification>\r\n'
p166
S'            <name>Alpha Ceti</name>\r\n'
p167
S'            <alternate_designation>Alpha Cet</alternate_designation>\r\n'
p168
S'            <type>Star</type>\r\n'
p169
S'            <Internal_Reference>\r\n'
p170
S'                <lid_reference>urn:nasa:pds:context:target:star.alf_cet</lid_reference>\r\n'
p171
S'                <reference_type>data_to_target</reference_type>\r\n'
p172
S'            </Internal_Reference>\r\n'
p173
S'        </Target_Identification>\r\n'
p174
tp175
a(S'        <Target_Identification>\r\n'
p176
S'            <name>Alpha Crucis</name>\r\n'
p177
S'            <alternate_designation>Alpha Cru</alternate_designation>\r\n'
p178
S'            <type>Star</type>\r\n'
p179
S'            <Internal_Reference>\r\n'
p180
S'                <lid_reference>urn:nasa:pds:context:target:star.alf_cru</lid_reference>\r\n'
p181
S'                <reference_type>data_to_target</reference_type>\r\n'
p182
S'            </Internal_Reference>\r\n'
p183
S'        </Target_Identification>\r\n'
p184
tp185
a(S'        <Target_Identification>\r\n'
p186
S'            <name>Alpha Eridani</name>\r\n'
p187
S'            <alternate_designation>Alpha Eri</alternate_designation>\r\n'
p188
S'            <type>Star</type>\r\n'
p189
S'            <Internal_Reference>\r\n'
p190
S'                <lid_reference>urn:nasa:pds:context:target:star.alf_eri</lid_reference>\r\n'
p191
S'                <reference_type>data_to_target</reference_type>\r\n'
p192
S'            </Internal_Reference>\r\n'
p193
S'        </Target_Identification>\r\n'
p194
tp195
a(S'        <Target_Identification>\r\n'
p196
S'            <name>Alpha Herculis</name>\r\n'
p197
S'            <alternate_designation>Alpha Her</alternate_designation>\r\n'
p198
S'            <type>Star</type>\r\n'
p199
S'            <Internal_Reference>\r\n'
p200
S'                <lid_reference>urn:nasa:pds:context:target:star.alf_her</lid_reference>\r\n'
p201
S'                <reference_type>data_to_target</reference_type>\r\n'
p202
S'            </Internal_Reference>\r\n'
p203
S'        </Target_Identification>\r\n'
p204
tp205
a(S'        <Target_Identification>\r\n'
p206
S'            <name>Alpha Hydrae</name>\r\n'
p207
S'            <alternate_designation>Alpha Hya</alternate_designation>\r\n'
p208
S'            <type>Star</type>\r\n'
p209
S'            <Internal_Reference>\r\n'
p210
S'                <lid_reference>urn:nasa:pds:context:target:star.alf_hya</lid_reference>\r\n'
p211
S'                <reference_type>data_to_target</reference_type>\r\n'
p212
S'            </Internal_Reference>\r\n'
p213
S'        </Target_Identification>\r\n'
p214
tp215
a(S'        <Target_Identification>\r\n'
p216
S'            <name>Alpha Sextantis</name>\r\n'
p217
S'            <alternate_designation>Alpha Sex</alternate_designation>\r\n'
p218
S'            <type>Star</type>\r\n'
p219
S'            <Internal_Reference>\r\n'
p220
S'                <lid_reference>urn:nasa:pds:context:target:star.alf_sex</lid_reference>\r\n'
p221
S'                <reference_type>data_to_target</reference_type>\r\n'
p222
S'            </Internal_Reference>\r\n'
p223
S'        </Target_Identification>\r\n'
p224
tp225
a(S'        <Target_Identification>\r\n'
p226
S'            <name>Alpha Trianguli Australis</name>\r\n'
p227
S'            <alternate_designation>Alpha TrA</alternate_designation>\r\n'
p228
S'            <type>Star</type>\r\n'
p229
S'            <Internal_Reference>\r\n'
p230
S'                <lid_reference>urn:nasa:pds:context:target:star.alf_tra</lid_reference>\r\n'
p231
S'                <reference_type>data_to_target</reference_type>\r\n'
p232
S'            </Internal_Reference>\r\n'
p233
S'        </Target_Identification>\r\n'
p234
tp235
a(S'        <Target_Identification>\r\n'
p236
S'            <name>Antares</name>\r\n'
p237
S'            <alternate_designation>Alpha Scorpii</alternate_designation>\r\n'
p238
S'            <alternate_designation>Alpha Sco</alternate_designation>\r\n'
p239
S'            <type>Star</type>\r\n'
p240
S'            <Internal_Reference>\r\n'
p241
S'                <lid_reference>urn:nasa:pds:context:target:star.alf_sco</lid_reference>\r\n'
p242
S'                <reference_type>data_to_target</reference_type>\r\n'
p243
S'            </Internal_Reference>\r\n'
p244
S'        </Target_Identification>\r\n'
p245
tp246
a(S'        <Target_Identification>\r\n'
p247
S'            <name>Anthe</name>\r\n'
p248
S'            <alternate_designation>Saturn XLIX (Anthe)</alternate_designation>\r\n'
p249
S'            <alternate_designation>S/2007 S 4</alternate_designation>\r\n'
p250
S'            <alternate_designation>NAIF ID 649</alternate_designation>\r\n'
p251
S'            <type>Satellite</type>\r\n'
p252
S'            <description>\r\n'
p253
S'                NAIF ID: 649;\r\n'
p254
S'                Center of motion: Saturn;\r\n'
p255
S'                LID of central body: urn:nasa:pds:context:target:planet.saturn;\r\n'
p256
S'                NAIF ID of central body: 699.\r\n'
p257
S'            </description>\r\n'
p258
S'            <Internal_Reference>\r\n'
p259
S'                <lid_reference>urn:nasa:pds:context:target:satellite.saturn.anthe</lid_reference>\r\n'
p260
S'                <reference_type>data_to_target</reference_type>\r\n'
p261
S'            </Internal_Reference>\r\n'
p262
S'        </Target_Identification>\r\n'
p263
tp264
a(S'        <Target_Identification>\r\n'
p265
S'            <name>Arcturus</name>\r\n'
p266
S'            <alternate_designation>Alpha Bootes</alternate_designation>\r\n'
p267
S'            <alternate_designation>Alpha Boo</alternate_designation>\r\n'
p268
S'            <type>Star</type>\r\n'
p269
S'            <Internal_Reference>\r\n'
p270
S'                <lid_reference>urn:nasa:pds:context:target:star.alf_boo</lid_reference>\r\n'
p271
S'                <reference_type>data_to_target</reference_type>\r\n'
p272
S'            </Internal_Reference>\r\n'
p273
S'        </Target_Identification>\r\n'
p274
tp275
a(S'        <Target_Identification>\r\n'
p276
S'            <name>Atlas</name>\r\n'
p277
S'            <alternate_designation>Saturn XV (Atlas)</alternate_designation>\r\n'
p278
S'            <alternate_designation>S/1980 S 28</alternate_designation>\r\n'
p279
S'            <alternate_designation>NAIF ID 615</alternate_designation>\r\n'
p280
S'            <type>Satellite</type>\r\n'
p281
S'            <description>\r\n'
p282
S'                NAIF ID: 615;\r\n'
p283
S'                Center of motion: Saturn;\r\n'
p284
S'                LID of central body: urn:nasa:pds:context:target:planet.saturn;\r\n'
p285
S'                NAIF ID of central body: 699.\r\n'
p286
S'            </description>\r\n'
p287
S'            <Internal_Reference>\r\n'
p288
S'                <lid_reference>urn:nasa:pds:context:target:satellite.saturn.atlas</lid_reference>\r\n'
p289
S'                <reference_type>data_to_target</reference_type>\r\n'
p290
S'            </Internal_Reference>\r\n'
p291
S'        </Target_Identification>\r\n'
p292
tp293
a(S'        <Target_Identification>\r\n'
p294
S'            <name>Bebhionn</name>\r\n'
p295
S'            <alternate_designation>Saturn XXXVII (Bebhionn)</alternate_designation>\r\n'
p296
S'            <alternate_designation>S/2004 S 11</alternate_designation>\r\n'
p297
S'            <alternate_designation>NAIF ID 637</alternate_designation>\r\n'
p298
S'            <type>Satellite</type>\r\n'
p299
S'            <description>\r\n'
p300
S'                NAIF ID: 637;\r\n'
p301
S'                Center of motion: Saturn;\r\n'
p302
S'                LID of central body: urn:nasa:pds:context:target:planet.saturn;\r\n'
p303
S'                NAIF ID of central body: 699.\r\n'
p304
S'            </description>\r\n'
p305
S'            <Internal_Reference>\r\n'
p306
S'                <lid_reference>urn:nasa:pds:context:target:satellite.saturn.bebhionn</lid_reference>\r\n'
p307
S'                <reference_type>data_to_target</reference_type>\r\n'
p308
S'            </Internal_Reference>\r\n'
p309
S'        </Target_Identification>\r\n'
p310
tp311
a(S'        <Target_Identification>\r\n'
p312
S'            <name>Bergelmir</name>\r\n'
p313
S'            <alternate_designation>Saturn XXXVIII (Bergelmir)</alternate_designation>\r\n'
p314
S'            <alternate_designation>S/2004 S 15</alternate_designation>\r\n'
p315
S'            <alternate_designation>NAIF ID 638</alternate_designation>\r\n'
p316
S'            <type>Satellite</type>\r\n'
p317
S'            <description>\r\n'
p318
S'                NAIF ID: 638;\r\n'
p319
S'                Center of motion: Saturn;\r\n'
p320
S'                LID of central body: urn:nasa:pds:context:target:planet.saturn;\r\n'
p321
S'                NAIF ID of central body: 699.\r\n'
p322
S'            </description>\r\n'
p323
S'            <Internal_Reference>\r\n'
p324
S'                <lid_reference>urn:nasa:pds:context:target:satellite.saturn.bergelmir</lid_reference>\r\n'
p325
S'                <reference_type>data_to_target</reference_type>\r\n'
p326
S'            </Internal_Reference>\r\n'
p327
S'        </Target_Identification>\r\n'
p328
tp329
a(S'        <Target_Identification>\r\n'
p330
S'            <name>Bestla</name>\r\n'
p331
S'            <alternate_designation>Saturn XXXIX (Bestla)</alternate_designation>\r\n'
p332
S'            <alternate_designation>S/2004 S 18</alternate_designation>\r\n'
p333
S'            <alternate_designation>NAIF ID 639</alternate_designation>\r\n'
p334
S'            <type>Satellite</type>\r\n'
p335
S'            <description>\r\n'
p336
S'                NAIF ID: 639;\r\n'
p337
S'                Center of motion: Saturn;\r\n'
p338
S'                LID of central body: urn:nasa:pds:context:target:planet.saturn;\r\n'
p339
S'                NAIF ID of central body: 699.\r\n'
p340
S'            </description>\r\n'
p341
S'            <Internal_Reference>\r\n'
p342
S'                <lid_reference>urn:nasa:pds:context:target:satellite.saturn.bestla</lid_reference>\r\n'
p343
S'                <reference_type>data_to_target</reference_type>\r\n'
p344
S'            </Internal_Reference>\r\n'
p345
S'        </Target_Identification>\r\n'
p346
tp347
a(S'        <Target_Identification>\r\n'
p348
S'            <name>Beta Andromedae</name>\r\n'
p349
S'            <alternate_designation>Beta And</alternate_designation>\r\n'
p350
S'            <type>Star</type>\r\n'
p351
S'            <Internal_Reference>\r\n'
p352
S'                <lid_reference>urn:nasa:pds:context:target:star.bet_and</lid_reference>\r\n'
p353
S'                <reference_type>data_to_target</reference_type>\r\n'
p354
S'            </Internal_Reference>\r\n'
p355
S'        </Target_Identification>\r\n'
p356
tp357
a(S'        <Target_Identification>\r\n'
p358
S'            <name>Beta Canis Majoris</name>\r\n'
p359
S'            <alternate_designation>Beta CMa</alternate_designation>\r\n'
p360
S'            <type>Star</type>\r\n'
p361
S'            <Internal_Reference>\r\n'
p362
S'                <lid_reference>urn:nasa:pds:context:target:star.bet_cma</lid_reference>\r\n'
p363
S'                <reference_type>data_to_target</reference_type>\r\n'
p364
S'            </Internal_Reference>\r\n'
p365
S'        </Target_Identification>\r\n'
p366
tp367
a(S'        <Target_Identification>\r\n'
p368
S'            <name>Beta Centauri</name>\r\n'
p369
S'            <alternate_designation>Beta Cen</alternate_designation>\r\n'
p370
S'            <type>Star</type>\r\n'
p371
S'            <Internal_Reference>\r\n'
p372
S'                <lid_reference>urn:nasa:pds:context:target:star.bet_cen</lid_reference>\r\n'
p373
S'                <reference_type>data_to_target</reference_type>\r\n'
p374
S'            </Internal_Reference>\r\n'
p375
S'        </Target_Identification>\r\n'
p376
tp377
a(S'        <Target_Identification>\r\n'
p378
S'            <name>Beta Crucis</name>\r\n'
p379
S'            <alternate_designation>Beta Cru</alternate_designation>\r\n'
p380
S'            <type>Star</type>\r\n'
p381
S'            <Internal_Reference>\r\n'
p382
S'                <lid_reference>urn:nasa:pds:context:target:star.bet_cru</lid_reference>\r\n'
p383
S'                <reference_type>data_to_target</reference_type>\r\n'
p384
S'            </Internal_Reference>\r\n'
p385
S'        </Target_Identification>\r\n'
p386
tp387
a(S'        <Target_Identification>\r\n'
p388
S'            <name>Beta Gruis</name>\r\n'
p389
S'            <alternate_designation>Beta Gru</alternate_designation>\r\n'
p390
S'            <type>Star</type>\r\n'
p391
S'            <Internal_Reference>\r\n'
p392
S'                <lid_reference>urn:nasa:pds:context:target:star.bet_gru</lid_reference>\r\n'
p393
S'                <reference_type>data_to_target</reference_type>\r\n'
p394
S'            </Internal_Reference>\r\n'
p395
S'        </Target_Identification>\r\n'
p396
tp397
a(S'        <Target_Identification>\r\n'
p398
S'            <name>Beta Librae</name>\r\n'
p399
S'            <alternate_designation>Beta Lib</alternate_designation>\r\n'
p400
S'            <type>Star</type>\r\n'
p401
S'            <Internal_Reference>\r\n'
p402
S'                <lid_reference>urn:nasa:pds:context:target:star.bet_lib</lid_reference>\r\n'
p403
S'                <reference_type>data_to_target</reference_type>\r\n'
p404
S'            </Internal_Reference>\r\n'
p405
S'        </Target_Identification>\r\n'
p406
tp407
a(S'        <Target_Identification>\r\n'
p408
S'            <name>Beta Lupi</name>\r\n'
p409
S'            <alternate_designation>Beta Lup</alternate_designation>\r\n'
p410
S'            <type>Star</type>\r\n'
p411
S'            <Internal_Reference>\r\n'
p412
S'                <lid_reference>urn:nasa:pds:context:target:star.bet_lup</lid_reference>\r\n'
p413
S'                <reference_type>data_to_target</reference_type>\r\n'
p414
S'            </Internal_Reference>\r\n'
p415
S'        </Target_Identification>\r\n'
p416
tp417
a(S'        <Target_Identification>\r\n'
p418
S'            <name>Beta Orionis</name>\r\n'
p419
S'            <alternate_designation>Beta Ori</alternate_designation>\r\n'
p420
S'            <type>Star</type>\r\n'
p421
S'            <Internal_Reference>\r\n'
p422
S'                <lid_reference>urn:nasa:pds:context:target:star.bet_ori</lid_reference>\r\n'
p423
S'                <reference_type>data_to_target</reference_type>\r\n'
p424
S'            </Internal_Reference>\r\n'
p425
S'        </Target_Identification>\r\n'
p426
tp427
a(S'        <Target_Identification>\r\n'
p428
S'            <name>Beta Pegasi</name>\r\n'
p429
S'            <alternate_designation>Beta Peg</alternate_designation>\r\n'
p430
S'            <type>Star</type>\r\n'
p431
S'            <Internal_Reference>\r\n'
p432
S'                <lid_reference>urn:nasa:pds:context:target:star.bet_peg</lid_reference>\r\n'
p433
S'                <reference_type>data_to_target</reference_type>\r\n'
p434
S'            </Internal_Reference>\r\n'
p435
S'        </Target_Identification>\r\n'
p436
tp437
a(S'        <Target_Identification>\r\n'
p438
S'            <name>Beta Sagittarii</name>\r\n'
p439
S'            <alternate_designation>Beta Sgr</alternate_designation>\r\n'
p440
S'            <type>Star</type>\r\n'
p441
S'            <Internal_Reference>\r\n'
p442
S'                <lid_reference>urn:nasa:pds:context:target:star.bet_sgr</lid_reference>\r\n'
p443
S'                <reference_type>data_to_target</reference_type>\r\n'
p444
S'            </Internal_Reference>\r\n'
p445
S'        </Target_Identification>\r\n'
p446
tp447
a(S'        <Target_Identification>\r\n'
p448
S'            <name>Beta Ursae Minoris</name>\r\n'
p449
S'            <alternate_designation>Beta UMi</alternate_designation>\r\n'
p450
S'            <type>Star</type>\r\n'
p451
S'            <Internal_Reference>\r\n'
p452
S'                <lid_reference>urn:nasa:pds:context:target:star.bet_umi</lid_reference>\r\n'
p453
S'                <reference_type>data_to_target</reference_type>\r\n'
p454
S'            </Internal_Reference>\r\n'
p455
S'        </Target_Identification>\r\n'
p456
tp457
a(S'        <Target_Identification>\r\n'
p458
S'            <name>Betelgeuse</name>\r\n'
p459
S'            <alternate_designation>Alpha Orionis</alternate_designation>\r\n'
p460
S'            <alternate_designation>Alpha Ori</alternate_designation>\r\n'
p461
S'            <type>Star</type>\r\n'
p462
S'            <Internal_Reference>\r\n'
p463
S'                <lid_reference>urn:nasa:pds:context:target:star.alf_ori</lid_reference>\r\n'
p464
S'                <reference_type>data_to_target</reference_type>\r\n'
p465
S'            </Internal_Reference>\r\n'
p466
S'        </Target_Identification>\r\n'
p467
tp468
a(S'        <Target_Identification>\r\n'
p469
S'            <name>CW Leonis</name>\r\n'
p470
S'            <alternate_designation>CW Leo</alternate_designation>\r\n'
p471
S'            <type>Star</type>\r\n'
p472
S'            <Internal_Reference>\r\n'
p473
S'                <lid_reference>urn:nasa:pds:context:target:star.cw_leo</lid_reference>\r\n'
p474
S'                <reference_type>data_to_target</reference_type>\r\n'
p475
S'            </Internal_Reference>\r\n'
p476
S'        </Target_Identification>\r\n'
p477
tp478
a(S'        <Target_Identification>\r\n'
p479
S'            <name>Cal Lamps</name>\r\n'
p480
S'            <type>Calibrator</type>\r\n'
p481
S'            <Internal_Reference>\r\n'
p482
S'                <lid_reference>urn:nasa:pds:context:target:calibrator.cal_lamps</lid_reference>\r\n'
p483
S'                <reference_type>data_to_target</reference_type>\r\n'
p484
S'            </Internal_Reference>\r\n'
p485
S'        </Target_Identification>\r\n'
p486
tp487
a(S'        <Target_Identification>\r\n'
p488
S'            <name>Callisto</name>\r\n'
p489
S'            <alternate_designation>Jupiter IV (Callisto)</alternate_designation>\r\n'
p490
S'            <alternate_designation>NAIF ID 504</alternate_designation>\r\n'
p491
S'            <type>Satellite</type>\r\n'
p492
S'            <description>\r\n'
p493
S'                NAIF ID: 504;\r\n'
p494
S'                Center of motion: Jupiter;\r\n'
p495
S'                LID of central body: urn:nasa:pds:context:target:planet.jupiter;\r\n'
p496
S'                NAIF ID of central body: 599.\r\n'
p497
S'            </description>\r\n'
p498
S'            <Internal_Reference>\r\n'
p499
S'                <lid_reference>urn:nasa:pds:context:target:satellite.jupiter.callisto</lid_reference>\r\n'
p500
S'                <reference_type>data_to_target</reference_type>\r\n'
p501
S'            </Internal_Reference>\r\n'
p502
S'        </Target_Identification>\r\n'
p503
tp504
a(S'        <Target_Identification>\r\n'
p505
S'            <name>Calypso</name>\r\n'
p506
S'            <alternate_designation>Saturn XIV (Calypso)</alternate_designation>\r\n'
p507
S'            <alternate_designation>S/1980 S 25</alternate_designation>\r\n'
p508
S'            <alternate_designation>NAIF ID 614</alternate_designation>\r\n'
p509
S'            <type>Satellite</type>\r\n'
p510
S'            <description>\r\n'
p511
S'                NAIF ID: 614;\r\n'
p512
S'                Center of motion: Saturn;\r\n'
p513
S'                LID of central body: urn:nasa:pds:context:target:planet.saturn;\r\n'
p514
S'                NAIF ID of central body: 699.\r\n'
p515
S'            </description>\r\n'
p516
S'            <Internal_Reference>\r\n'
p517
S'                <lid_reference>urn:nasa:pds:context:target:satellite.saturn.calypso</lid_reference>\r\n'
p518
S'                <reference_type>data_to_target</reference_type>\r\n'
p519
S'            </Internal_Reference>\r\n'
p520
S'        </Target_Identification>\r\n'
p521
tp522
a(S'        <Target_Identification>\r\n'
p523
S'            <name>Canopus</name>\r\n'
p524
S'            <alternate_designation>Alpha Carinae</alternate_designation>\r\n'
p525
S'            <alternate_designation>Alpha Car</alternate_designation>\r\n'
p526
S'            <type>Star</type>\r\n'
p527
S'            <Internal_Reference>\r\n'
p528
S'                <lid_reference>urn:nasa:pds:context:target:star.alf_car</lid_reference>\r\n'
p529
S'                <reference_type>data_to_target</reference_type>\r\n'
p530
S'            </Internal_Reference>\r\n'
p531
S'        </Target_Identification>\r\n'
p532
tp533
a(S'        <Target_Identification>\r\n'
p534
S'            <name>Capella</name>\r\n'
p535
S'            <alternate_designation>Alpha Aurigae</alternate_designation>\r\n'
p536
S'            <alternate_designation>Alpha Aur</alternate_designation>\r\n'
p537
S'            <type>Star</type>\r\n'
p538
S'            <Internal_Reference>\r\n'
p539
S'                <lid_reference>urn:nasa:pds:context:target:star.alf_aur</lid_reference>\r\n'
p540
S'                <reference_type>data_to_target</reference_type>\r\n'
p541
S'            </Internal_Reference>\r\n'
p542
S'        </Target_Identification>\r\n'
p543
tp544
a(S'        <Target_Identification>\r\n'
p545
S'            <name>Checkout</name>\r\n'
p546
S'            <type>Calibrator</type>\r\n'
p547
S'            <Internal_Reference>\r\n'
p548
S'                <lid_reference>urn:nasa:pds:context:target:calibrator.checkout</lid_reference>\r\n'
p549
S'                <reference_type>data_to_target</reference_type>\r\n'
p550
S'            </Internal_Reference>\r\n'
p551
S'        </Target_Identification>\r\n'
p552
tp553
a(S'        <Target_Identification>\r\n'
p554
S'            <name>Chi Aquarii</name>\r\n'
p555
S'            <alternate_designation>Chi Aqr</alternate_designation>\r\n'
p556
S'            <type>Star</type>\r\n'
p557
S'            <Internal_Reference>\r\n'
p558
S'                <lid_reference>urn:nasa:pds:context:target:star.chi_aqr</lid_reference>\r\n'
p559
S'                <reference_type>data_to_target</reference_type>\r\n'
p560
S'            </Internal_Reference>\r\n'
p561
S'        </Target_Identification>\r\n'
p562
tp563
a(S'        <Target_Identification>\r\n'
p564
S'            <name>Chi Centauri</name>\r\n'
p565
S'            <alternate_designation>Chi Cen</alternate_designation>\r\n'
p566
S'            <type>Star</type>\r\n'
p567
S'            <Internal_Reference>\r\n'
p568
S'                <lid_reference>urn:nasa:pds:context:target:star.chi_cen</lid_reference>\r\n'
p569
S'                <reference_type>data_to_target</reference_type>\r\n'
p570
S'            </Internal_Reference>\r\n'
p571
S'        </Target_Identification>\r\n'
p572
tp573
a(S'        <Target_Identification>\r\n'
p574
S'            <name>Chi Cygni</name>\r\n'
p575
S'            <alternate_designation>Chi Cyg</alternate_designation>\r\n'
p576
S'            <type>Star</type>\r\n'
p577
S'            <Internal_Reference>\r\n'
p578
S'                <lid_reference>urn:nasa:pds:context:target:star.chi_cyg</lid_reference>\r\n'
p579
S'                <reference_type>data_to_target</reference_type>\r\n'
p580
S'            </Internal_Reference>\r\n'
p581
S'        </Target_Identification>\r\n'
p582
tp583
a(S'        <Target_Identification>\r\n'
p584
S'            <name>Daphnis</name>\r\n'
p585
S'            <alternate_designation>Saturn XXXV (Daphnis)</alternate_designation>\r\n'
p586
S'            <alternate_designation>S/2005 S 1</alternate_designation>\r\n'
p587
S'            <alternate_designation>NAIF ID 635</alternate_designation>\r\n'
p588
S'            <type>Satellite</type>\r\n'
p589
S'            <description>\r\n'
p590
S'                NAIF ID: 635;\r\n'
p591
S'                Center of motion: Saturn;\r\n'
p592
S'                LID of central body: urn:nasa:pds:context:target:planet.saturn;\r\n'
p593
S'                NAIF ID of central body: 699.\r\n'
p594
S'            </description>\r\n'
p595
S'            <Internal_Reference>\r\n'
p596
S'                <lid_reference>urn:nasa:pds:context:target:satellite.saturn.daphnis</lid_reference>\r\n'
p597
S'                <reference_type>data_to_target</reference_type>\r\n'
p598
S'            </Internal_Reference>\r\n'
p599
S'        </Target_Identification>\r\n'
p600
tp601
a(S'        <Target_Identification>\r\n'
p602
S'            <name>Dark Sky</name>\r\n'
p603
S'            <type>Calibration Field</type>\r\n'
p604
S'            <Internal_Reference>\r\n'
p605
S'                <lid_reference>urn:nasa:pds:context:target:calibration_field.dark_sky</lid_reference>\r\n'
p606
S'                <reference_type>data_to_target</reference_type>\r\n'
p607
S'            </Internal_Reference>\r\n'
p608
S'        </Target_Identification>\r\n'
p609
tp610
a(S'        <Target_Identification>\r\n'
p611
S'            <name>Dark</name>\r\n'
p612
S'            <type>Calibration Field</type>\r\n'
p613
S'            <Internal_Reference>\r\n'
p614
S'                <lid_reference>urn:nasa:pds:context:target:calibration_field.dark</lid_reference>\r\n'
p615
S'                <reference_type>data_to_target</reference_type>\r\n'
p616
S'            </Internal_Reference>\r\n'
p617
S'        </Target_Identification>\r\n'
p618
tp619
a(S'        <Target_Identification>\r\n'
p620
S'            <name>Delta Aquarii</name>\r\n'
p621
S'            <alternate_designation>Delta Aqr</alternate_designation>\r\n'
p622
S'            <type>Star</type>\r\n'
p623
S'            <Internal_Reference>\r\n'
p624
S'                <lid_reference>urn:nasa:pds:context:target:star.del_aqr</lid_reference>\r\n'
p625
S'                <reference_type>data_to_target</reference_type>\r\n'
p626
S'            </Internal_Reference>\r\n'
p627
S'        </Target_Identification>\r\n'
p628
tp629
a(S'        <Target_Identification>\r\n'
p630
S'            <name>Delta Centauri</name>\r\n'
p631
S'            <alternate_designation>Delta Cen</alternate_designation>\r\n'
p632
S'            <type>Star</type>\r\n'
p633
S'            <Internal_Reference>\r\n'
p634
S'                <lid_reference>urn:nasa:pds:context:target:star.del_cen</lid_reference>\r\n'
p635
S'                <reference_type>data_to_target</reference_type>\r\n'
p636
S'            </Internal_Reference>\r\n'
p637
S'        </Target_Identification>\r\n'
p638
tp639
a(S'        <Target_Identification>\r\n'
p640
S'            <name>Delta Lupi</name>\r\n'
p641
S'            <alternate_designation>Delta Lup</alternate_designation>\r\n'
p642
S'            <type>Star</type>\r\n'
p643
S'            <Internal_Reference>\r\n'
p644
S'                <lid_reference>urn:nasa:pds:context:target:star.del_lup</lid_reference>\r\n'
p645
S'                <reference_type>data_to_target</reference_type>\r\n'
p646
S'            </Internal_Reference>\r\n'
p647
S'        </Target_Identification>\r\n'
p648
tp649
a(S'        <Target_Identification>\r\n'
p650
S'            <name>Delta Ophiuchi</name>\r\n'
p651
S'            <alternate_designation>Delta Oph</alternate_designation>\r\n'
p652
S'            <type>Star</type>\r\n'
p653
S'            <Internal_Reference>\r\n'
p654
S'                <lid_reference>urn:nasa:pds:context:target:star.del_oph</lid_reference>\r\n'
p655
S'                <reference_type>data_to_target</reference_type>\r\n'
p656
S'            </Internal_Reference>\r\n'
p657
S'        </Target_Identification>\r\n'
p658
tp659
a(S'        <Target_Identification>\r\n'
p660
S'            <name>Delta Persei</name>\r\n'
p661
S'            <alternate_designation>Delta Per</alternate_designation>\r\n'
p662
S'            <type>Star</type>\r\n'
p663
S'            <Internal_Reference>\r\n'
p664
S'                <lid_reference>urn:nasa:pds:context:target:star.del_per</lid_reference>\r\n'
p665
S'                <reference_type>data_to_target</reference_type>\r\n'
p666
S'            </Internal_Reference>\r\n'
p667
S'        </Target_Identification>\r\n'
p668
tp669
a(S'        <Target_Identification>\r\n'
p670
S'            <name>Delta Virginis</name>\r\n'
p671
S'            <alternate_designation>Delta Vir</alternate_designation>\r\n'
p672
S'            <type>Star</type>\r\n'
p673
S'            <Internal_Reference>\r\n'
p674
S'                <lid_reference>urn:nasa:pds:context:target:star.del_vir</lid_reference>\r\n'
p675
S'                <reference_type>data_to_target</reference_type>\r\n'
p676
S'            </Internal_Reference>\r\n'
p677
S'        </Target_Identification>\r\n'
p678
tp679
a(S'        <Target_Identification>\r\n'
p680
S'            <name>Dione</name>\r\n'
p681
S'            <alternate_designation>Saturn IV (Dione)</alternate_designation>\r\n'
p682
S'            <alternate_designation>NAIF ID 604</alternate_designation>\r\n'
p683
S'            <type>Satellite</type>\r\n'
p684
S'            <description>\r\n'
p685
S'                NAIF ID: 604;\r\n'
p686
S'                Center of motion: Saturn;\r\n'
p687
S'                LID of central body: urn:nasa:pds:context:target:planet.saturn;\r\n'
p688
S'                NAIF ID of central body: 699.\r\n'
p689
S'            </description>\r\n'
p690
S'            <Internal_Reference>\r\n'
p691
S'                <lid_reference>urn:nasa:pds:context:target:satellite.saturn.dione</lid_reference>\r\n'
p692
S'                <reference_type>data_to_target</reference_type>\r\n'
p693
S'            </Internal_Reference>\r\n'
p694
S'        </Target_Identification>\r\n'
p695
tp696
a(S'        <Target_Identification>\r\n'
p697
S'            <name>Dust</name>\r\n'
p698
S'            <type>Dust</type>\r\n'
p699
S'            <Internal_Reference>\r\n'
p700
S'                <lid_reference>urn:nasa:pds:context:target:dust.dust</lid_reference>\r\n'
p701
S'                <reference_type>data_to_target</reference_type>\r\n'
p702
S'            </Internal_Reference>\r\n'
p703
S'        </Target_Identification>\r\n'
p704
tp705
a(S'        <Target_Identification>\r\n'
p706
S'            <name>Earth</name>\r\n'
p707
S'            <alternate_designation>NAIF ID 399</alternate_designation>\r\n'
p708
S'            <type>Planet</type>\r\n'
p709
S'            <description>\r\n'
p710
S'                NAIF ID: 399;\r\n'
p711
S'                Center of motion: Sun;\r\n'
p712
S'                LID of central body: urn:nasa:pds:context:target:sun.sun;\r\n'
p713
S'                NAIF ID of central body: 10.\r\n'
p714
S'            </description>\r\n'
p715
S'            <Internal_Reference>\r\n'
p716
S'                <lid_reference>urn:nasa:pds:context:target:planet.earth</lid_reference>\r\n'
p717
S'                <reference_type>data_to_target</reference_type>\r\n'
p718
S'            </Internal_Reference>\r\n'
p719
S'        </Target_Identification>\r\n'
p720
tp721
a(S'        <Target_Identification>\r\n'
p722
S'            <name>Enceladus</name>\r\n'
p723
S'            <alternate_designation>Saturn II (Enceladus)</alternate_designation>\r\n'
p724
S'            <alternate_designation>NAIF ID 602</alternate_designation>\r\n'
p725
S'            <type>Satellite</type>\r\n'
p726
S'            <description>\r\n'
p727
S'                NAIF ID: 602;\r\n'
p728
S'                Center of motion: Saturn;\r\n'
p729
S'                LID of central body: urn:nasa:pds:context:target:planet.saturn;\r\n'
p730
S'                NAIF ID of central body: 699.\r\n'
p731
S'            </description>\r\n'
p732
S'            <Internal_Reference>\r\n'
p733
S'                <lid_reference>urn:nasa:pds:context:target:satellite.saturn.enceladus</lid_reference>\r\n'
p734
S'                <reference_type>data_to_target</reference_type>\r\n'
p735
S'            </Internal_Reference>\r\n'
p736
S'        </Target_Identification>\r\n'
p737
tp738
a(S'        <Target_Identification>\r\n'
p739
S'            <name>Epimetheus</name>\r\n'
p740
S'            <alternate_designation>Saturn XI (Epimetheus)</alternate_designation>\r\n'
p741
S'            <alternate_designation>NAIF ID 611</alternate_designation>\r\n'
p742
S'            <type>Satellite</type>\r\n'
p743
S'            <description>\r\n'
p744
S'                NAIF ID: 611;\r\n'
p745
S'                Center of motion: Saturn;\r\n'
p746
S'                LID of central body: urn:nasa:pds:context:target:planet.saturn;\r\n'
p747
S'                NAIF ID of central body: 699.\r\n'
p748
S'            </description>\r\n'
p749
S'            <Internal_Reference>\r\n'
p750
S'                <lid_reference>urn:nasa:pds:context:target:satellite.saturn.epimetheus</lid_reference>\r\n'
p751
S'                <reference_type>data_to_target</reference_type>\r\n'
p752
S'            </Internal_Reference>\r\n'
p753
S'        </Target_Identification>\r\n'
p754
tp755
a(S'        <Target_Identification>\r\n'
p756
S'            <name>Epsilon Cassiopeiae</name>\r\n'
p757
S'            <alternate_designation>Epsilon Cas</alternate_designation>\r\n'
p758
S'            <type>Star</type>\r\n'
p759
S'            <Internal_Reference>\r\n'
p760
S'                <lid_reference>urn:nasa:pds:context:target:star.eps_cas</lid_reference>\r\n'
p761
S'                <reference_type>data_to_target</reference_type>\r\n'
p762
S'            </Internal_Reference>\r\n'
p763
S'        </Target_Identification>\r\n'
p764
tp765
a(S'        <Target_Identification>\r\n'
p766
S'            <name>Epsilon Centauri</name>\r\n'
p767
S'            <alternate_designation>Epsilon Cen</alternate_designation>\r\n'
p768
S'            <type>Star</type>\r\n'
p769
S'            <Internal_Reference>\r\n'
p770
S'                <lid_reference>urn:nasa:pds:context:target:star.eps_cen</lid_reference>\r\n'
p771
S'                <reference_type>data_to_target</reference_type>\r\n'
p772
S'            </Internal_Reference>\r\n'
p773
S'        </Target_Identification>\r\n'
p774
tp775
a(S'        <Target_Identification>\r\n'
p776
S'            <name>Epsilon Lupi</name>\r\n'
p777
S'            <alternate_designation>Epsilon Lup</alternate_designation>\r\n'
p778
S'            <type>Star</type>\r\n'
p779
S'            <Internal_Reference>\r\n'
p780
S'                <lid_reference>urn:nasa:pds:context:target:star.eps_lup</lid_reference>\r\n'
p781
S'                <reference_type>data_to_target</reference_type>\r\n'
p782
S'            </Internal_Reference>\r\n'
p783
S'        </Target_Identification>\r\n'
p784
tp785
a(S'        <Target_Identification>\r\n'
p786
S'            <name>Epsilon Muscae</name>\r\n'
p787
S'            <alternate_designation>Epsilon Mus</alternate_designation>\r\n'
p788
S'            <type>Star</type>\r\n'
p789
S'            <Internal_Reference>\r\n'
p790
S'                <lid_reference>urn:nasa:pds:context:target:star.eps_mus</lid_reference>\r\n'
p791
S'                <reference_type>data_to_target</reference_type>\r\n'
p792
S'            </Internal_Reference>\r\n'
p793
S'        </Target_Identification>\r\n'
p794
tp795
a(S'        <Target_Identification>\r\n'
p796
S'            <name>Epsilon Orionis</name>\r\n'
p797
S'            <alternate_designation>Epsilon Ori</alternate_designation>\r\n'
p798
S'            <type>Star</type>\r\n'
p799
S'            <Internal_Reference>\r\n'
p800
S'                <lid_reference>urn:nasa:pds:context:target:star.eps_ori</lid_reference>\r\n'
p801
S'                <reference_type>data_to_target</reference_type>\r\n'
p802
S'            </Internal_Reference>\r\n'
p803
S'        </Target_Identification>\r\n'
p804
tp805
a(S'        <Target_Identification>\r\n'
p806
S'            <name>Epsilon Piscis Austrini</name>\r\n'
p807
S'            <alternate_designation>Epsilon PsA</alternate_designation>\r\n'
p808
S'            <type>Star</type>\r\n'
p809
S'            <Internal_Reference>\r\n'
p810
S'                <lid_reference>urn:nasa:pds:context:target:star.eps_psa</lid_reference>\r\n'
p811
S'                <reference_type>data_to_target</reference_type>\r\n'
p812
S'            </Internal_Reference>\r\n'
p813
S'        </Target_Identification>\r\n'
p814
tp815
a(S'        <Target_Identification>\r\n'
p816
S'            <name>Erriapus</name>\r\n'
p817
S'            <alternate_designation>Saturn XXVIII (Erriapus)</alternate_designation>\r\n'
p818
S'            <alternate_designation>S/2000 S 10</alternate_designation>\r\n'
p819
S'            <alternate_designation>NAIF ID 628</alternate_designation>\r\n'
p820
S'            <type>Satellite</type>\r\n'
p821
S'            <description>\r\n'
p822
S'                NAIF ID: 628;\r\n'
p823
S'                Center of motion: Saturn;\r\n'
p824
S'                LID of central body: urn:nasa:pds:context:target:planet.saturn;\r\n'
p825
S'                NAIF ID of central body: 699.\r\n'
p826
S'            </description>\r\n'
p827
S'            <Internal_Reference>\r\n'
p828
S'                <lid_reference>urn:nasa:pds:context:target:satellite.saturn.erriapus</lid_reference>\r\n'
p829
S'                <reference_type>data_to_target</reference_type>\r\n'
p830
S'            </Internal_Reference>\r\n'
p831
S'        </Target_Identification>\r\n'
p832
tp833
a(S'        <Target_Identification>\r\n'
p834
S'            <name>Eta Carinae</name>\r\n'
p835
S'            <alternate_designation>Eta Car</alternate_designation>\r\n'
p836
S'            <type>Star</type>\r\n'
p837
S'            <Internal_Reference>\r\n'
p838
S'                <lid_reference>urn:nasa:pds:context:target:star.eta_car</lid_reference>\r\n'
p839
S'                <reference_type>data_to_target</reference_type>\r\n'
p840
S'            </Internal_Reference>\r\n'
p841
S'        </Target_Identification>\r\n'
p842
tp843
a(S'        <Target_Identification>\r\n'
p844
S'            <name>Eta Lupi</name>\r\n'
p845
S'            <alternate_designation>Eta Lup</alternate_designation>\r\n'
p846
S'            <type>Star</type>\r\n'
p847
S'            <Internal_Reference>\r\n'
p848
S'                <lid_reference>urn:nasa:pds:context:target:star.eta_lup</lid_reference>\r\n'
p849
S'                <reference_type>data_to_target</reference_type>\r\n'
p850
S'            </Internal_Reference>\r\n'
p851
S'        </Target_Identification>\r\n'
p852
tp853
a(S'        <Target_Identification>\r\n'
p854
S'            <name>Eta Sagittarii</name>\r\n'
p855
S'            <alternate_designation>Eta Sgr</alternate_designation>\r\n'
p856
S'            <type>Star</type>\r\n'
p857
S'            <Internal_Reference>\r\n'
p858
S'                <lid_reference>urn:nasa:pds:context:target:star.eta_sgr</lid_reference>\r\n'
p859
S'                <reference_type>data_to_target</reference_type>\r\n'
p860
S'            </Internal_Reference>\r\n'
p861
S'        </Target_Identification>\r\n'
p862
tp863
a(S'        <Target_Identification>\r\n'
p864
S'            <name>Eta Ursae Majoris</name>\r\n'
p865
S'            <alternate_designation>Eta UMa</alternate_designation>\r\n'
p866
S'            <type>Star</type>\r\n'
p867
S'            <Internal_Reference>\r\n'
p868
S'                <lid_reference>urn:nasa:pds:context:target:star.eta_uma</lid_reference>\r\n'
p869
S'                <reference_type>data_to_target</reference_type>\r\n'
p870
S'            </Internal_Reference>\r\n'
p871
S'        </Target_Identification>\r\n'
p872
tp873
a(S'        <Target_Identification>\r\n'
p874
S'            <name>Europa</name>\r\n'
p875
S'            <alternate_designation>Jupiter II (Europa)</alternate_designation>\r\n'
p876
S'            <alternate_designation>NAIF ID 502</alternate_designation>\r\n'
p877
S'            <type>Satellite</type>\r\n'
p878
S'            <description>\r\n'
p879
S'                NAIF ID: 502;\r\n'
p880
S'                Center of motion: Jupiter;\r\n'
p881
S'                LID of central body: urn:nasa:pds:context:target:planet.jupiter;\r\n'
p882
S'                NAIF ID of central body: 599.\r\n'
p883
S'            </description>\r\n'
p884
S'            <Internal_Reference>\r\n'
p885
S'                <lid_reference>urn:nasa:pds:context:target:satellite.jupiter.europa</lid_reference>\r\n'
p886
S'                <reference_type>data_to_target</reference_type>\r\n'
p887
S'            </Internal_Reference>\r\n'
p888
S'        </Target_Identification>\r\n'
p889
tp890
a(S'        <Target_Identification>\r\n'
p891
S'            <name>Fomalhaut</name>\r\n'
p892
S'            <alternate_designation>Alpha Piscis Austrini</alternate_designation>\r\n'
p893
S'            <alternate_designation>Alpha PsA</alternate_designation>\r\n'
p894
S'            <type>Star</type>\r\n'
p895
S'            <Internal_Reference>\r\n'
p896
S'                <lid_reference>urn:nasa:pds:context:target:star.alf_psa</lid_reference>\r\n'
p897
S'                <reference_type>data_to_target</reference_type>\r\n'
p898
S'            </Internal_Reference>\r\n'
p899
S'        </Target_Identification>\r\n'
p900
tp901
a(S'        <Target_Identification>\r\n'
p902
S'            <name>Fornjot</name>\r\n'
p903
S'            <alternate_designation>Saturn XLII (Fornjot)</alternate_designation>\r\n'
p904
S'            <alternate_designation>S/2004 S 8</alternate_designation>\r\n'
p905
S'            <alternate_designation>NAIF ID 642</alternate_designation>\r\n'
p906
S'            <type>Satellite</type>\r\n'
p907
S'            <description>\r\n'
p908
S'                NAIF ID: 642;\r\n'
p909
S'                Center of motion: Saturn;\r\n'
p910
S'                LID of central body: urn:nasa:pds:context:target:planet.saturn;\r\n'
p911
S'                NAIF ID of central body: 699.\r\n'
p912
S'            </description>\r\n'
p913
S'            <Internal_Reference>\r\n'
p914
S'                <lid_reference>urn:nasa:pds:context:target:satellite.saturn.fornjot</lid_reference>\r\n'
p915
S'                <reference_type>data_to_target</reference_type>\r\n'
p916
S'            </Internal_Reference>\r\n'
p917
S'        </Target_Identification>\r\n'
p918
tp919
a(S'        <Target_Identification>\r\n'
p920
S'            <name>Gamma Andromedae</name>\r\n'
p921
S'            <alternate_designation>Gamma And</alternate_designation>\r\n'
p922
S'            <type>Star</type>\r\n'
p923
S'            <Internal_Reference>\r\n'
p924
S'                <lid_reference>urn:nasa:pds:context:target:star.gam_and</lid_reference>\r\n'
p925
S'                <reference_type>data_to_target</reference_type>\r\n'
p926
S'            </Internal_Reference>\r\n'
p927
S'        </Target_Identification>\r\n'
p928
tp929
a(S'        <Target_Identification>\r\n'
p930
S'            <name>Gamma Arae</name>\r\n'
p931
S'            <alternate_designation>Gamma Ara</alternate_designation>\r\n'
p932
S'            <type>Star</type>\r\n'
p933
S'            <Internal_Reference>\r\n'
p934
S'                <lid_reference>urn:nasa:pds:context:target:star.gam_ara</lid_reference>\r\n'
p935
S'                <reference_type>data_to_target</reference_type>\r\n'
p936
S'            </Internal_Reference>\r\n'
p937
S'        </Target_Identification>\r\n'
p938
tp939
a(S'        <Target_Identification>\r\n'
p940
S'            <name>Gamma Cassiopeiae</name>\r\n'
p941
S'            <alternate_designation>Gamma Cas</alternate_designation>\r\n'
p942
S'            <type>Star</type>\r\n'
p943
S'            <Internal_Reference>\r\n'
p944
S'                <lid_reference>urn:nasa:pds:context:target:star.gam_cas</lid_reference>\r\n'
p945
S'                <reference_type>data_to_target</reference_type>\r\n'
p946
S'            </Internal_Reference>\r\n'
p947
S'        </Target_Identification>\r\n'
p948
tp949
a(S'        <Target_Identification>\r\n'
p950
S'            <name>Gamma Columbae</name>\r\n'
p951
S'            <alternate_designation>Gamma Col</alternate_designation>\r\n'
p952
S'            <type>Star</type>\r\n'
p953
S'            <Internal_Reference>\r\n'
p954
S'                <lid_reference>urn:nasa:pds:context:target:star.gam_col</lid_reference>\r\n'
p955
S'                <reference_type>data_to_target</reference_type>\r\n'
p956
S'            </Internal_Reference>\r\n'
p957
S'        </Target_Identification>\r\n'
p958
tp959
a(S'        <Target_Identification>\r\n'
p960
S'            <name>Gamma Crucis</name>\r\n'
p961
S'            <alternate_designation>Gamma Cru</alternate_designation>\r\n'
p962
S'            <type>Star</type>\r\n'
p963
S'            <Internal_Reference>\r\n'
p964
S'                <lid_reference>urn:nasa:pds:context:target:star.gam_cru</lid_reference>\r\n'
p965
S'                <reference_type>data_to_target</reference_type>\r\n'
p966
S'            </Internal_Reference>\r\n'
p967
S'        </Target_Identification>\r\n'
p968
tp969
a(S'        <Target_Identification>\r\n'
p970
S'            <name>Gamma Eridani</name>\r\n'
p971
S'            <alternate_designation>Gamma Eri</alternate_designation>\r\n'
p972
S'            <type>Star</type>\r\n'
p973
S'            <Internal_Reference>\r\n'
p974
S'                <lid_reference>urn:nasa:pds:context:target:star.gam_eri</lid_reference>\r\n'
p975
S'                <reference_type>data_to_target</reference_type>\r\n'
p976
S'            </Internal_Reference>\r\n'
p977
S'        </Target_Identification>\r\n'
p978
tp979
a(S'        <Target_Identification>\r\n'
p980
S'            <name>Gamma Gruis</name>\r\n'
p981
S'            <alternate_designation>Gamma Gru</alternate_designation>\r\n'
p982
S'            <type>Star</type>\r\n'
p983
S'            <Internal_Reference>\r\n'
p984
S'                <lid_reference>urn:nasa:pds:context:target:star.gam_gru</lid_reference>\r\n'
p985
S'                <reference_type>data_to_target</reference_type>\r\n'
p986
S'            </Internal_Reference>\r\n'
p987
S'        </Target_Identification>\r\n'
p988
tp989
a(S'        <Target_Identification>\r\n'
p990
S'            <name>Gamma Lupi</name>\r\n'
p991
S'            <alternate_designation>Gamma Lup</alternate_designation>\r\n'
p992
S'            <type>Star</type>\r\n'
p993
S'            <Internal_Reference>\r\n'
p994
S'                <lid_reference>urn:nasa:pds:context:target:star.gam_lup</lid_reference>\r\n'
p995
S'                <reference_type>data_to_target</reference_type>\r\n'
p996
S'            </Internal_Reference>\r\n'
p997
S'        </Target_Identification>\r\n'
p998
tp999
a(S'        <Target_Identification>\r\n'
p1000
S'            <name>Gamma Pegasi</name>\r\n'
p1001
S'            <alternate_designation>Gamma Peg</alternate_designation>\r\n'
p1002
S'            <type>Star</type>\r\n'
p1003
S'            <Internal_Reference>\r\n'
p1004
S'                <lid_reference>urn:nasa:pds:context:target:star.gam_peg</lid_reference>\r\n'
p1005
S'                <reference_type>data_to_target</reference_type>\r\n'
p1006
S'            </Internal_Reference>\r\n'
p1007
S'        </Target_Identification>\r\n'
p1008
tp1009
a(S'        <Target_Identification>\r\n'
p1010
S'            <name>Ganymede</name>\r\n'
p1011
S'            <alternate_designation>Jupiter III (Ganymede)</alternate_designation>\r\n'
p1012
S'            <alternate_designation>NAIF ID 503</alternate_designation>\r\n'
p1013
S'            <type>Satellite</type>\r\n'
p1014
S'            <description>\r\n'
p1015
S'                NAIF ID: 503;\r\n'
p1016
S'                Center of motion: Jupiter;\r\n'
p1017
S'                LID of central body: urn:nasa:pds:context:target:planet.jupiter;\r\n'
p1018
S'                NAIF ID of central body: 599.\r\n'
p1019
S'            </description>\r\n'
p1020
S'            <Internal_Reference>\r\n'
p1021
S'                <lid_reference>urn:nasa:pds:context:target:satellite.jupiter.ganymede</lid_reference>\r\n'
p1022
S'                <reference_type>data_to_target</reference_type>\r\n'
p1023
S'            </Internal_Reference>\r\n'
p1024
S'        </Target_Identification>\r\n'
p1025
tp1026
a(S'        <Target_Identification>\r\n'
p1027
S'            <name>Greip</name>\r\n'
p1028
S'            <alternate_designation>Saturn LI (Greip)</alternate_designation>\r\n'
p1029
S'            <alternate_designation>S/2006 S 4</alternate_designation>\r\n'
p1030
S'            <alternate_designation>NAIF ID 651</alternate_designation>\r\n'
p1031
S'            <type>Satellite</type>\r\n'
p1032
S'            <description>\r\n'
p1033
S'                NAIF ID: 651;\r\n'
p1034
S'                Center of motion: Saturn;\r\n'
p1035
S'                LID of central body: urn:nasa:pds:context:target:planet.saturn;\r\n'
p1036
S'                NAIF ID of central body: 699.\r\n'
p1037
S'            </description>\r\n'
p1038
S'            <Internal_Reference>\r\n'
p1039
S'                <lid_reference>urn:nasa:pds:context:target:satellite.saturn.greip</lid_reference>\r\n'
p1040
S'                <reference_type>data_to_target</reference_type>\r\n'
p1041
S'            </Internal_Reference>\r\n'
p1042
S'        </Target_Identification>\r\n'
p1043
tp1044
a(S'        <Target_Identification>\r\n'
p1045
S'            <name>HD 339479</name>\r\n'
p1046
S'            <alternate_designation>HD 339479</alternate_designation>\r\n'
p1047
S'            <type>Star</type>\r\n'
p1048
S'            <Internal_Reference>\r\n'
p1049
S'                <lid_reference>urn:nasa:pds:context:target:star.hd_339479</lid_reference>\r\n'
p1050
S'                <reference_type>data_to_target</reference_type>\r\n'
p1051
S'            </Internal_Reference>\r\n'
p1052
S'        </Target_Identification>\r\n'
p1053
tp1054
a(S'        <Target_Identification>\r\n'
p1055
S'            <name>HD 71334</name>\r\n'
p1056
S'            <alternate_designation>HD 71334</alternate_designation>\r\n'
p1057
S'            <type>Star</type>\r\n'
p1058
S'            <Internal_Reference>\r\n'
p1059
S'                <lid_reference>urn:nasa:pds:context:target:star.hd_71334</lid_reference>\r\n'
p1060
S'                <reference_type>data_to_target</reference_type>\r\n'
p1061
S'            </Internal_Reference>\r\n'
p1062
S'        </Target_Identification>\r\n'
p1063
tp1064
a(S'        <Target_Identification>\r\n'
p1065
S'            <name>HR 996</name>\r\n'
p1066
S'            <type>Star</type>\r\n'
p1067
S'            <Internal_Reference>\r\n'
p1068
S'                <lid_reference>urn:nasa:pds:context:target:star.hr_996</lid_reference>\r\n'
p1069
S'                <reference_type>data_to_target</reference_type>\r\n'
p1070
S'            </Internal_Reference>\r\n'
p1071
S'        </Target_Identification>\r\n'
p1072
tp1073
a(S'        <Target_Identification>\r\n'
p1074
S'            <name>Hati</name>\r\n'
p1075
S'            <alternate_designation>Saturn XLIII (Hati)</alternate_designation>\r\n'
p1076
S'            <alternate_designation>S/2004 S 14</alternate_designation>\r\n'
p1077
S'            <alternate_designation>NAIF ID 643</alternate_designation>\r\n'
p1078
S'            <type>Satellite</type>\r\n'
p1079
S'            <description>\r\n'
p1080
S'                NAIF ID: 643;\r\n'
p1081
S'                Center of motion: Saturn;\r\n'
p1082
S'                LID of central body: urn:nasa:pds:context:target:planet.saturn;\r\n'
p1083
S'                NAIF ID of central body: 699.\r\n'
p1084
S'            </description>\r\n'
p1085
S'            <Internal_Reference>\r\n'
p1086
S'                <lid_reference>urn:nasa:pds:context:target:satellite.saturn.hati</lid_reference>\r\n'
p1087
S'                <reference_type>data_to_target</reference_type>\r\n'
p1088
S'            </Internal_Reference>\r\n'
p1089
S'        </Target_Identification>\r\n'
p1090
tp1091
a(S'        <Target_Identification>\r\n'
p1092
S'            <name>Helene</name>\r\n'
p1093
S'            <alternate_designation>Saturn XII (Helene)</alternate_designation>\r\n'
p1094
S'            <alternate_designation>S/1980 S 6</alternate_designation>\r\n'
p1095
S'            <alternate_designation>NAIF ID 612</alternate_designation>\r\n'
p1096
S'            <type>Satellite</type>\r\n'
p1097
S'            <description>\r\n'
p1098
S'                NAIF ID: 612;\r\n'
p1099
S'                Center of motion: Saturn;\r\n'
p1100
S'                LID of central body: urn:nasa:pds:context:target:planet.saturn;\r\n'
p1101
S'                NAIF ID of central body: 699.\r\n'
p1102
S'            </description>\r\n'
p1103
S'            <Internal_Reference>\r\n'
p1104
S'                <lid_reference>urn:nasa:pds:context:target:satellite.saturn.helene</lid_reference>\r\n'
p1105
S'                <reference_type>data_to_target</reference_type>\r\n'
p1106
S'            </Internal_Reference>\r\n'
p1107
S'        </Target_Identification>\r\n'
p1108
tp1109
a(S'        <Target_Identification>\r\n'
p1110
S'            <name>Himalia</name>\r\n'
p1111
S'            <alternate_designation>Jupiter VI (Himalia)</alternate_designation>\r\n'
p1112
S'            <alternate_designation>NAIF ID 506</alternate_designation>\r\n'
p1113
S'            <type>Satellite</type>\r\n'
p1114
S'            <description>\r\n'
p1115
S'                NAIF ID: 506;\r\n'
p1116
S'                Center of motion: Jupiter;\r\n'
p1117
S'                LID of central body: urn:nasa:pds:context:target:planet.jupiter;\r\n'
p1118
S'                NAIF ID of central body: 599.\r\n'
p1119
S'            </description>\r\n'
p1120
S'            <Internal_Reference>\r\n'
p1121
S'                <lid_reference>urn:nasa:pds:context:target:satellite.jupiter.himalia</lid_reference>\r\n'
p1122
S'                <reference_type>data_to_target</reference_type>\r\n'
p1123
S'            </Internal_Reference>\r\n'
p1124
S'        </Target_Identification>\r\n'
p1125
tp1126
a(S'        <Target_Identification>\r\n'
p1127
S'            <name>Hyperion</name>\r\n'
p1128
S'            <alternate_designation>Saturn VII (Hyperion)</alternate_designation>\r\n'
p1129
S'            <alternate_designation>NAIF ID 607</alternate_designation>\r\n'
p1130
S'            <type>Satellite</type>\r\n'
p1131
S'            <description>\r\n'
p1132
S'                NAIF ID: 607;\r\n'
p1133
S'                Center of motion: Saturn;\r\n'
p1134
S'                LID of central body: urn:nasa:pds:context:target:planet.saturn;\r\n'
p1135
S'                NAIF ID of central body: 699.\r\n'
p1136
S'            </description>\r\n'
p1137
S'            <Internal_Reference>\r\n'
p1138
S'                <lid_reference>urn:nasa:pds:context:target:satellite.saturn.hyperion</lid_reference>\r\n'
p1139
S'                <reference_type>data_to_target</reference_type>\r\n'
p1140
S'            </Internal_Reference>\r\n'
p1141
S'        </Target_Identification>\r\n'
p1142
tp1143
a(S'        <Target_Identification>\r\n'
p1144
S'            <name>Hyrrokkin</name>\r\n'
p1145
S'            <alternate_designation>Saturn XLIV (Hyrrokkin)</alternate_designation>\r\n'
p1146
S'            <alternate_designation>NAIF ID 644</alternate_designation>\r\n'
p1147
S'            <type>Satellite</type>\r\n'
p1148
S'            <description>\r\n'
p1149
S'                NAIF ID: 644;\r\n'
p1150
S'                Center of motion: Saturn;\r\n'
p1151
S'                LID of central body: urn:nasa:pds:context:target:planet.saturn;\r\n'
p1152
S'                NAIF ID of central body: 699.\r\n'
p1153
S'            </description>\r\n'
p1154
S'            <Internal_Reference>\r\n'
p1155
S'                <lid_reference>urn:nasa:pds:context:target:satellite.saturn.hyrrokkin</lid_reference>\r\n'
p1156
S'                <reference_type>data_to_target</reference_type>\r\n'
p1157
S'            </Internal_Reference>\r\n'
p1158
S'        </Target_Identification>\r\n'
p1159
tp1160
a(S'        <Target_Identification>\r\n'
p1161
S'            <name>Iapetus</name>\r\n'
p1162
S'            <alternate_designation>Saturn VIII (Iapetus)</alternate_designation>\r\n'
p1163
S'            <alternate_designation>NAIF ID 608</alternate_designation>\r\n'
p1164
S'            <type>Satellite</type>\r\n'
p1165
S'            <description>\r\n'
p1166
S'                NAIF ID: 608;\r\n'
p1167
S'                Center of motion: Saturn;\r\n'
p1168
S'                LID of central body: urn:nasa:pds:context:target:planet.saturn;\r\n'
p1169
S'                NAIF ID of central body: 699.\r\n'
p1170
S'            </description>\r\n'
p1171
S'            <Internal_Reference>\r\n'
p1172
S'                <lid_reference>urn:nasa:pds:context:target:satellite.saturn.iapetus</lid_reference>\r\n'
p1173
S'                <reference_type>data_to_target</reference_type>\r\n'
p1174
S'            </Internal_Reference>\r\n'
p1175
S'        </Target_Identification>\r\n'
p1176
tp1177
a(S'        <Target_Identification>\r\n'
p1178
S'            <name>Ijiraq</name>\r\n'
p1179
S'            <alternate_designation>Saturn XXII (Ijiraq)</alternate_designation>\r\n'
p1180
S'            <alternate_designation>S/2000 S 6</alternate_designation>\r\n'
p1181
S'            <alternate_designation>NAIF ID 622</alternate_designation>\r\n'
p1182
S'            <type>Satellite</type>\r\n'
p1183
S'            <description>\r\n'
p1184
S'                NAIF ID: 622;\r\n'
p1185
S'                Center of motion: Saturn;\r\n'
p1186
S'                LID of central body: urn:nasa:pds:context:target:planet.saturn;\r\n'
p1187
S'                NAIF ID of central body: 699.\r\n'
p1188
S'            </description>\r\n'
p1189
S'            <Internal_Reference>\r\n'
p1190
S'                <lid_reference>urn:nasa:pds:context:target:satellite.saturn.ijiraq</lid_reference>\r\n'
p1191
S'                <reference_type>data_to_target</reference_type>\r\n'
p1192
S'            </Internal_Reference>\r\n'
p1193
S'        </Target_Identification>\r\n'
p1194
tp1195
a(S'        <Target_Identification>\r\n'
p1196
S'            <name>Io</name>\r\n'
p1197
S'            <alternate_designation>Jupiter I (Io)</alternate_designation>\r\n'
p1198
S'            <alternate_designation>NAIF ID 501</alternate_designation>\r\n'
p1199
S'            <type>Satellite</type>\r\n'
p1200
S'            <description>\r\n'
p1201
S'                NAIF ID: 501;\r\n'
p1202
S'                Center of motion: Jupiter;\r\n'
p1203
S'                LID of central body: urn:nasa:pds:context:target:planet.jupiter;\r\n'
p1204
S'                NAIF ID of central body: 599.\r\n'
p1205
S'            </description>\r\n'
p1206
S'            <Internal_Reference>\r\n'
p1207
S'                <lid_reference>urn:nasa:pds:context:target:satellite.jupiter.io</lid_reference>\r\n'
p1208
S'                <reference_type>data_to_target</reference_type>\r\n'
p1209
S'            </Internal_Reference>\r\n'
p1210
S'        </Target_Identification>\r\n'
p1211
tp1212
a(S'        <Target_Identification>\r\n'
p1213
S'            <name>Iota Centauri</name>\r\n'
p1214
S'            <alternate_designation>Iota Cen</alternate_designation>\r\n'
p1215
S'            <type>Star</type>\r\n'
p1216
S'            <Internal_Reference>\r\n'
p1217
S'                <lid_reference>urn:nasa:pds:context:target:star.io_cen</lid_reference>\r\n'
p1218
S'                <reference_type>data_to_target</reference_type>\r\n'
p1219
S'            </Internal_Reference>\r\n'
p1220
S'        </Target_Identification>\r\n'
p1221
tp1222
a(S'        <Target_Identification>\r\n'
p1223
S'            <name>Janus</name>\r\n'
p1224
S'            <alternate_designation>Saturn X (Janus)</alternate_designation>\r\n'
p1225
S'            <alternate_designation>NAIF ID 610</alternate_designation>\r\n'
p1226
S'            <type>Satellite</type>\r\n'
p1227
S'            <description>\r\n'
p1228
S'                NAIF ID: 610;\r\n'
p1229
S'                Center of motion: Saturn;\r\n'
p1230
S'                LID of central body: urn:nasa:pds:context:target:planet.saturn;\r\n'
p1231
S'                NAIF ID of central body: 699.\r\n'
p1232
S'            </description>\r\n'
p1233
S'            <Internal_Reference>\r\n'
p1234
S'                <lid_reference>urn:nasa:pds:context:target:satellite.saturn.janus</lid_reference>\r\n'
p1235
S'                <reference_type>data_to_target</reference_type>\r\n'
p1236
S'            </Internal_Reference>\r\n'
p1237
S'        </Target_Identification>\r\n'
p1238
tp1239
a(S'        <Target_Identification>\r\n'
p1240
S'            <name>Jarnsaxa</name>\r\n'
p1241
S'            <alternate_designation>Saturn L (Jarnsaxa)</alternate_designation>\r\n'
p1242
S'            <alternate_designation>S/2006 S 6</alternate_designation>\r\n'
p1243
S'            <alternate_designation>NAIF ID 650</alternate_designation>\r\n'
p1244
S'            <type>Satellite</type>\r\n'
p1245
S'            <description>\r\n'
p1246
S'                NAIF ID: 650;\r\n'
p1247
S'                Center of motion: Saturn;\r\n'
p1248
S'                LID of central body: urn:nasa:pds:context:target:planet.saturn;\r\n'
p1249
S'                NAIF ID of central body: 699.\r\n'
p1250
S'            </description>\r\n'
p1251
S'            <Internal_Reference>\r\n'
p1252
S'                <lid_reference>urn:nasa:pds:context:target:satellite.saturn.jarnsaxa</lid_reference>\r\n'
p1253
S'                <reference_type>data_to_target</reference_type>\r\n'
p1254
S'            </Internal_Reference>\r\n'
p1255
S'        </Target_Identification>\r\n'
p1256
tp1257
a(S'        <Target_Identification>\r\n'
p1258
S'            <name>Jupiter</name>\r\n'
p1259
S'            <alternate_designation>NAIF ID 599</alternate_designation>\r\n'
p1260
S'            <type>Planet</type>\r\n'
p1261
S'            <description>\r\n'
p1262
S'                NAIF ID: 599;\r\n'
p1263
S'                Center of motion: Sun;\r\n'
p1264
S'                LID of central body: urn:nasa:pds:context:target:sun.sun;\r\n'
p1265
S'                NAIF ID of central body: 10.\r\n'
p1266
S'            </description>\r\n'
p1267
S'            <Internal_Reference>\r\n'
p1268
S'                <lid_reference>urn:nasa:pds:context:target:planet.jupiter</lid_reference>\r\n'
p1269
S'                <reference_type>data_to_target</reference_type>\r\n'
p1270
S'            </Internal_Reference>\r\n'
p1271
S'        </Target_Identification>\r\n'
p1272
tp1273
a(S'        <Target_Identification>\r\n'
p1274
S'            <name>Kappa Centauri</name>\r\n'
p1275
S'            <alternate_designation>Kappa Cen</alternate_designation>\r\n'
p1276
S'            <type>Star</type>\r\n'
p1277
S'            <Internal_Reference>\r\n'
p1278
S'                <lid_reference>urn:nasa:pds:context:target:star.kap_cen</lid_reference>\r\n'
p1279
S'                <reference_type>data_to_target</reference_type>\r\n'
p1280
S'            </Internal_Reference>\r\n'
p1281
S'        </Target_Identification>\r\n'
p1282
tp1283
a(S'        <Target_Identification>\r\n'
p1284
S'            <name>Kappa Orionis</name>\r\n'
p1285
S'            <alternate_designation>Kappa Ori</alternate_designation>\r\n'
p1286
S'            <type>Star</type>\r\n'
p1287
S'            <Internal_Reference>\r\n'
p1288
S'                <lid_reference>urn:nasa:pds:context:target:star.kap_ori</lid_reference>\r\n'
p1289
S'                <reference_type>data_to_target</reference_type>\r\n'
p1290
S'            </Internal_Reference>\r\n'
p1291
S'        </Target_Identification>\r\n'
p1292
tp1293
a(S'        <Target_Identification>\r\n'
p1294
S'            <name>Kari</name>\r\n'
p1295
S'            <alternate_designation>Saturn XLV (Kari)</alternate_designation>\r\n'
p1296
S'            <alternate_designation>S/2006 S 2</alternate_designation>\r\n'
p1297
S'            <alternate_designation>NAIF ID 645</alternate_designation>\r\n'
p1298
S'            <type>Satellite</type>\r\n'
p1299
S'            <description>\r\n'
p1300
S'                NAIF ID: 645;\r\n'
p1301
S'                Center of motion: Saturn;\r\n'
p1302
S'                LID of central body: urn:nasa:pds:context:target:planet.saturn;\r\n'
p1303
S'                NAIF ID of central body: 699.\r\n'
p1304
S'            </description>\r\n'
p1305
S'            <Internal_Reference>\r\n'
p1306
S'                <lid_reference>urn:nasa:pds:context:target:satellite.saturn.kari</lid_reference>\r\n'
p1307
S'                <reference_type>data_to_target</reference_type>\r\n'
p1308
S'            </Internal_Reference>\r\n'
p1309
S'        </Target_Identification>\r\n'
p1310
tp1311
a(S'        <Target_Identification>\r\n'
p1312
S'            <name>Kiviuq</name>\r\n'
p1313
S'            <alternate_designation>Saturn XXIV (Kiviuq)</alternate_designation>\r\n'
p1314
S'            <alternate_designation>S/2000 S 5</alternate_designation>\r\n'
p1315
S'            <alternate_designation>NAIF ID 624</alternate_designation>\r\n'
p1316
S'            <type>Satellite</type>\r\n'
p1317
S'            <description>\r\n'
p1318
S'                NAIF ID: 624;\r\n'
p1319
S'                Center of motion: Saturn;\r\n'
p1320
S'                LID of central body: urn:nasa:pds:context:target:planet.saturn;\r\n'
p1321
S'                NAIF ID of central body: 699.\r\n'
p1322
S'            </description>\r\n'
p1323
S'            <Internal_Reference>\r\n'
p1324
S'                <lid_reference>urn:nasa:pds:context:target:satellite.saturn.kiviuq</lid_reference>\r\n'
p1325
S'                <reference_type>data_to_target</reference_type>\r\n'
p1326
S'            </Internal_Reference>\r\n'
p1327
S'        </Target_Identification>\r\n'
p1328
tp1329
a(S'        <Target_Identification>\r\n'
p1330
S'            <name>LMC 303</name>\r\n'
p1331
S'            <alternate_designation>LMC 303</alternate_designation>\r\n'
p1332
S'            <type>Star</type>\r\n'
p1333
S'            <Internal_Reference>\r\n'
p1334
S'                <lid_reference>urn:nasa:pds:context:target:star.lmc_303</lid_reference>\r\n'
p1335
S'                <reference_type>data_to_target</reference_type>\r\n'
p1336
S'            </Internal_Reference>\r\n'
p1337
S'        </Target_Identification>\r\n'
p1338
tp1339
a(S'        <Target_Identification>\r\n'
p1340
S'            <name>Lambda Aquarii</name>\r\n'
p1341
S'            <alternate_designation>Lambda Aqr</alternate_designation>\r\n'
p1342
S'            <type>Star</type>\r\n'
p1343
S'            <Internal_Reference>\r\n'
p1344
S'                <lid_reference>urn:nasa:pds:context:target:star.lam_aqr</lid_reference>\r\n'
p1345
S'                <reference_type>data_to_target</reference_type>\r\n'
p1346
S'            </Internal_Reference>\r\n'
p1347
S'        </Target_Identification>\r\n'
p1348
tp1349
a(S'        <Target_Identification>\r\n'
p1350
S'            <name>Lambda Ceti</name>\r\n'
p1351
S'            <alternate_designation>Lambda Cet</alternate_designation>\r\n'
p1352
S'            <type>Star</type>\r\n'
p1353
S'            <Internal_Reference>\r\n'
p1354
S'                <lid_reference>urn:nasa:pds:context:target:star.lam_cet</lid_reference>\r\n'
p1355
S'                <reference_type>data_to_target</reference_type>\r\n'
p1356
S'            </Internal_Reference>\r\n'
p1357
S'        </Target_Identification>\r\n'
p1358
tp1359
a(S'        <Target_Identification>\r\n'
p1360
S'            <name>Lambda Scorpii</name>\r\n'
p1361
S'            <alternate_designation>Lambda Sco</alternate_designation>\r\n'
p1362
S'            <type>Star</type>\r\n'
p1363
S'            <Internal_Reference>\r\n'
p1364
S'                <lid_reference>urn:nasa:pds:context:target:star.lam_sco</lid_reference>\r\n'
p1365
S'                <reference_type>data_to_target</reference_type>\r\n'
p1366
S'            </Internal_Reference>\r\n'
p1367
S'        </Target_Identification>\r\n'
p1368
tp1369
a(S'        <Target_Identification>\r\n'
p1370
S'            <name>Lambda Velorum</name>\r\n'
p1371
S'            <alternate_designation>Lambda Vel</alternate_designation>\r\n'
p1372
S'            <type>Star</type>\r\n'
p1373
S'            <Internal_Reference>\r\n'
p1374
S'                <lid_reference>urn:nasa:pds:context:target:star.lam_vel</lid_reference>\r\n'
p1375
S'                <reference_type>data_to_target</reference_type>\r\n'
p1376
S'            </Internal_Reference>\r\n'
p1377
S'        </Target_Identification>\r\n'
p1378
tp1379
a(S'        <Target_Identification>\r\n'
p1380
S'            <name>Loge</name>\r\n'
p1381
S'            <alternate_designation>Saturn XLVI (Loge)</alternate_designation>\r\n'
p1382
S'            <alternate_designation>S/2006 S 5</alternate_designation>\r\n'
p1383
S'            <alternate_designation>NAIF ID 646</alternate_designation>\r\n'
p1384
S'            <type>Satellite</type>\r\n'
p1385
S'            <description>\r\n'
p1386
S'                NAIF ID: 646;\r\n'
p1387
S'                Center of motion: Saturn;\r\n'
p1388
S'                LID of central body: urn:nasa:pds:context:target:planet.saturn;\r\n'
p1389
S'                NAIF ID of central body: 699.\r\n'
p1390
S'            </description>\r\n'
p1391
S'            <Internal_Reference>\r\n'
p1392
S'                <lid_reference>urn:nasa:pds:context:target:satellite.saturn.loge</lid_reference>\r\n'
p1393
S'                <reference_type>data_to_target</reference_type>\r\n'
p1394
S'            </Internal_Reference>\r\n'
p1395
S'        </Target_Identification>\r\n'
p1396
tp1397
a(S'        <Target_Identification>\r\n'
p1398
S'            <name>Masursky</name>\r\n'
p1399
S'            <alternate_designation>2685 Masursky</alternate_designation>\r\n'
p1400
S'            <alternate_designation>NAIF ID 2002685</alternate_designation>\r\n'
p1401
S'            <type>Asteroid</type>\r\n'
p1402
S'            <description>\r\n'
p1403
S'                NAIF ID: 2002685;\r\n'
p1404
S'                Center of motion: Sun;\r\n'
p1405
S'                LID of central body: urn:nasa:pds:context:target:sun.sun;\r\n'
p1406
S'                NAIF ID of central body: 10.\r\n'
p1407
S'            </description>\r\n'
p1408
S'            <Internal_Reference>\r\n'
p1409
S'                <lid_reference>urn:nasa:pds:context:target:asteroid.2685_masursky</lid_reference>\r\n'
p1410
S'                <reference_type>data_to_target</reference_type>\r\n'
p1411
S'            </Internal_Reference>\r\n'
p1412
S'        </Target_Identification>\r\n'
p1413
tp1414
a(S'        <Target_Identification>\r\n'
p1415
S'            <name>Methone</name>\r\n'
p1416
S'            <alternate_designation>Saturn XXXII (Methone)</alternate_designation>\r\n'
p1417
S'            <alternate_designation>S/2004 S 1</alternate_designation>\r\n'
p1418
S'            <alternate_designation>NAIF ID 632</alternate_designation>\r\n'
p1419
S'            <type>Satellite</type>\r\n'
p1420
S'            <description>\r\n'
p1421
S'                NAIF ID: 632;\r\n'
p1422
S'                Center of motion: Saturn;\r\n'
p1423
S'                LID of central body: urn:nasa:pds:context:target:planet.saturn;\r\n'
p1424
S'                NAIF ID of central body: 699.\r\n'
p1425
S'            </description>\r\n'
p1426
S'            <Internal_Reference>\r\n'
p1427
S'                <lid_reference>urn:nasa:pds:context:target:satellite.saturn.methone</lid_reference>\r\n'
p1428
S'                <reference_type>data_to_target</reference_type>\r\n'
p1429
S'            </Internal_Reference>\r\n'
p1430
S'        </Target_Identification>\r\n'
p1431
tp1432
a(S'        <Target_Identification>\r\n'
p1433
S'            <name>Mimas</name>\r\n'
p1434
S'            <alternate_designation>Saturn I (Mimas)</alternate_designation>\r\n'
p1435
S'            <alternate_designation>NAIF ID 601</alternate_designation>\r\n'
p1436
S'            <type>Satellite</type>\r\n'
p1437
S'            <description>\r\n'
p1438
S'                NAIF ID: 601;\r\n'
p1439
S'                Center of motion: Saturn;\r\n'
p1440
S'                LID of central body: urn:nasa:pds:context:target:planet.saturn;\r\n'
p1441
S'                NAIF ID of central body: 699.\r\n'
p1442
S'            </description>\r\n'
p1443
S'            <Internal_Reference>\r\n'
p1444
S'                <lid_reference>urn:nasa:pds:context:target:satellite.saturn.mimas</lid_reference>\r\n'
p1445
S'                <reference_type>data_to_target</reference_type>\r\n'
p1446
S'            </Internal_Reference>\r\n'
p1447
S'        </Target_Identification>\r\n'
p1448
tp1449
a(S'        <Target_Identification>\r\n'
p1450
S'            <name>Moon</name>\r\n'
p1451
S'            <alternate_designation>Earth I (Moon)</alternate_designation>\r\n'
p1452
S'            <alternate_designation>NAIF ID 301</alternate_designation>\r\n'
p1453
S'            <type>Satellite</type>\r\n'
p1454
S'            <description>\r\n'
p1455
S'                NAIF ID: 301;\r\n'
p1456
S'                Center of motion: Earth;\r\n'
p1457
S'                LID of central body: urn:nasa:pds:context:target:planet.earth;\r\n'
p1458
S'                NAIF ID of central body: 399.\r\n'
p1459
S'            </description>\r\n'
p1460
S'            <Internal_Reference>\r\n'
p1461
S'                <lid_reference>urn:nasa:pds:context:target:satellite.earth.moon</lid_reference>\r\n'
p1462
S'                <reference_type>data_to_target</reference_type>\r\n'
p1463
S'            </Internal_Reference>\r\n'
p1464
S'        </Target_Identification>\r\n'
p1465
tp1466
a(S'        <Target_Identification>\r\n'
p1467
S'            <name>Mu Cephei</name>\r\n'
p1468
S'            <alternate_designation>Mu Cep</alternate_designation>\r\n'
p1469
S'            <type>Star</type>\r\n'
p1470
S'            <Internal_Reference>\r\n'
p1471
S'                <lid_reference>urn:nasa:pds:context:target:star.mu_cep</lid_reference>\r\n'
p1472
S'                <reference_type>data_to_target</reference_type>\r\n'
p1473
S'            </Internal_Reference>\r\n'
p1474
S'        </Target_Identification>\r\n'
p1475
tp1476
a(S'        <Target_Identification>\r\n'
p1477
S'            <name>Mu Geminorum</name>\r\n'
p1478
S'            <alternate_designation>Mu Gem</alternate_designation>\r\n'
p1479
S'            <type>Star</type>\r\n'
p1480
S'            <Internal_Reference>\r\n'
p1481
S'                <lid_reference>urn:nasa:pds:context:target:star.mu_gem</lid_reference>\r\n'
p1482
S'                <reference_type>data_to_target</reference_type>\r\n'
p1483
S'            </Internal_Reference>\r\n'
p1484
S'        </Target_Identification>\r\n'
p1485
tp1486
a(S'        <Target_Identification>\r\n'
p1487
S'            <name>Mu Piscis Austrini</name>\r\n'
p1488
S'            <alternate_designation>Mu PsA</alternate_designation>\r\n'
p1489
S'            <type>Star</type>\r\n'
p1490
S'            <Internal_Reference>\r\n'
p1491
S'                <lid_reference>urn:nasa:pds:context:target:star.mu_psa</lid_reference>\r\n'
p1492
S'                <reference_type>data_to_target</reference_type>\r\n'
p1493
S'            </Internal_Reference>\r\n'
p1494
S'        </Target_Identification>\r\n'
p1495
tp1496
a(S'        <Target_Identification>\r\n'
p1497
S'            <name>Mundilfari</name>\r\n'
p1498
S'            <alternate_designation>Saturn XXV (Mundilfari)</alternate_designation>\r\n'
p1499
S'            <alternate_designation>S/2000 S 9</alternate_designation>\r\n'
p1500
S'            <alternate_designation>NAIF ID 625</alternate_designation>\r\n'
p1501
S'            <type>Satellite</type>\r\n'
p1502
S'            <description>\r\n'
p1503
S'                NAIF ID: 625;\r\n'
p1504
S'                Center of motion: Saturn;\r\n'
p1505
S'                LID of central body: urn:nasa:pds:context:target:planet.saturn;\r\n'
p1506
S'                NAIF ID of central body: 699.\r\n'
p1507
S'            </description>\r\n'
p1508
S'            <Internal_Reference>\r\n'
p1509
S'                <lid_reference>urn:nasa:pds:context:target:satellite.saturn.mundilfari</lid_reference>\r\n'
p1510
S'                <reference_type>data_to_target</reference_type>\r\n'
p1511
S'            </Internal_Reference>\r\n'
p1512
S'        </Target_Identification>\r\n'
p1513
tp1514
a(S'        <Target_Identification>\r\n'
p1515
S'            <name>NML Tauri</name>\r\n'
p1516
S'            <alternate_designation>NML Tau</alternate_designation>\r\n'
p1517
S'            <alternate_designation>IK Tau</alternate_designation>\r\n'
p1518
S'            <type>Star</type>\r\n'
p1519
S'            <Internal_Reference>\r\n'
p1520
S'                <lid_reference>urn:nasa:pds:context:target:star.nml_tau</lid_reference>\r\n'
p1521
S'                <reference_type>data_to_target</reference_type>\r\n'
p1522
S'            </Internal_Reference>\r\n'
p1523
S'        </Target_Identification>\r\n'
p1524
tp1525
a(S'        <Target_Identification>\r\n'
p1526
S'            <name>Narvi</name>\r\n'
p1527
S'            <alternate_designation>Saturn XXXI (Narvi)</alternate_designation>\r\n'
p1528
S'            <alternate_designation>S/2003 S 1</alternate_designation>\r\n'
p1529
S'            <alternate_designation>NAIF ID 631</alternate_designation>\r\n'
p1530
S'            <type>Satellite</type>\r\n'
p1531
S'            <description>\r\n'
p1532
S'                NAIF ID: 631;\r\n'
p1533
S'                Center of motion: Saturn;\r\n'
p1534
S'                LID of central body: urn:nasa:pds:context:target:planet.saturn;\r\n'
p1535
S'                NAIF ID of central body: 699.\r\n'
p1536
S'            </description>\r\n'
p1537
S'            <Internal_Reference>\r\n'
p1538
S'                <lid_reference>urn:nasa:pds:context:target:satellite.saturn.narvi</lid_reference>\r\n'
p1539
S'                <reference_type>data_to_target</reference_type>\r\n'
p1540
S'            </Internal_Reference>\r\n'
p1541
S'        </Target_Identification>\r\n'
p1542
tp1543
a(S'        <Target_Identification>\r\n'
p1544
S'            <name>Nu Centauri</name>\r\n'
p1545
S'            <alternate_designation>Nu Cen</alternate_designation>\r\n'
p1546
S'            <type>Star</type>\r\n'
p1547
S'            <Internal_Reference>\r\n'
p1548
S'                <lid_reference>urn:nasa:pds:context:target:star.nu_cen</lid_reference>\r\n'
p1549
S'                <reference_type>data_to_target</reference_type>\r\n'
p1550
S'            </Internal_Reference>\r\n'
p1551
S'        </Target_Identification>\r\n'
p1552
tp1553
a(S'        <Target_Identification>\r\n'
p1554
S'            <name>Nu Virginis</name>\r\n'
p1555
S'            <alternate_designation>Nu Vir</alternate_designation>\r\n'
p1556
S'            <type>Star</type>\r\n'
p1557
S'            <Internal_Reference>\r\n'
p1558
S'                <lid_reference>urn:nasa:pds:context:target:star.nu_vir</lid_reference>\r\n'
p1559
S'                <reference_type>data_to_target</reference_type>\r\n'
p1560
S'            </Internal_Reference>\r\n'
p1561
S'        </Target_Identification>\r\n'
p1562
tp1563
a(S'        <Target_Identification>\r\n'
p1564
S'            <name>Omega Virginis</name>\r\n'
p1565
S'            <alternate_designation>Omega Vir</alternate_designation>\r\n'
p1566
S'            <type>Star</type>\r\n'
p1567
S'            <Internal_Reference>\r\n'
p1568
S'                <lid_reference>urn:nasa:pds:context:target:star.ome_vir</lid_reference>\r\n'
p1569
S'                <reference_type>data_to_target</reference_type>\r\n'
p1570
S'            </Internal_Reference>\r\n'
p1571
S'        </Target_Identification>\r\n'
p1572
tp1573
a(S'        <Target_Identification>\r\n'
p1574
S'            <name>Omicron Ceti</name>\r\n'
p1575
S'            <alternate_designation>Omicron Cet</alternate_designation>\r\n'
p1576
S'            <type>Star</type>\r\n'
p1577
S'            <Internal_Reference>\r\n'
p1578
S'                <lid_reference>urn:nasa:pds:context:target:star.omi_cet</lid_reference>\r\n'
p1579
S'                <reference_type>data_to_target</reference_type>\r\n'
p1580
S'            </Internal_Reference>\r\n'
p1581
S'        </Target_Identification>\r\n'
p1582
tp1583
a(S'        <Target_Identification>\r\n'
p1584
S'            <name>Paaliaq</name>\r\n'
p1585
S'            <alternate_designation>Saturn XX (Paaliaq)</alternate_designation>\r\n'
p1586
S'            <alternate_designation>S/2000 S 2</alternate_designation>\r\n'
p1587
S'            <alternate_designation>NAIF ID 620</alternate_designation>\r\n'
p1588
S'            <type>Satellite</type>\r\n'
p1589
S'            <description>\r\n'
p1590
S'                NAIF ID: 620;\r\n'
p1591
S'                Center of motion: Saturn;\r\n'
p1592
S'                LID of central body: urn:nasa:pds:context:target:planet.saturn;\r\n'
p1593
S'                NAIF ID of central body: 699.\r\n'
p1594
S'            </description>\r\n'
p1595
S'            <Internal_Reference>\r\n'
p1596
S'                <lid_reference>urn:nasa:pds:context:target:satellite.saturn.paaliaq</lid_reference>\r\n'
p1597
S'                <reference_type>data_to_target</reference_type>\r\n'
p1598
S'            </Internal_Reference>\r\n'
p1599
S'        </Target_Identification>\r\n'
p1600
tp1601
a(S'        <Target_Identification>\r\n'
p1602
S'            <name>Pallene</name>\r\n'
p1603
S'            <alternate_designation>Saturn XXXIII (Pallene)</alternate_designation>\r\n'
p1604
S'            <alternate_designation>S/2004 S 2</alternate_designation>\r\n'
p1605
S'            <alternate_designation>NAIF ID 633</alternate_designation>\r\n'
p1606
S'            <type>Satellite</type>\r\n'
p1607
S'            <description>\r\n'
p1608
S'                NAIF ID: 633;\r\n'
p1609
S'                Center of motion: Saturn;\r\n'
p1610
S'                LID of central body: urn:nasa:pds:context:target:planet.saturn;\r\n'
p1611
S'                NAIF ID of central body: 699.\r\n'
p1612
S'            </description>\r\n'
p1613
S'            <Internal_Reference>\r\n'
p1614
S'                <lid_reference>urn:nasa:pds:context:target:satellite.saturn.pallene</lid_reference>\r\n'
p1615
S'                <reference_type>data_to_target</reference_type>\r\n'
p1616
S'            </Internal_Reference>\r\n'
p1617
S'        </Target_Identification>\r\n'
p1618
tp1619
a(S'        <Target_Identification>\r\n'
p1620
S'            <name>Pan</name>\r\n'
p1621
S'            <alternate_designation>Saturn XVIII (Pan)</alternate_designation>\r\n'
p1622
S'            <alternate_designation>S/1981 S 13</alternate_designation>\r\n'
p1623
S'            <alternate_designation>NAIF ID 618</alternate_designation>\r\n'
p1624
S'            <type>Satellite</type>\r\n'
p1625
S'            <description>\r\n'
p1626
S'                NAIF ID: 618;\r\n'
p1627
S'                Center of motion: Saturn;\r\n'
p1628
S'                LID of central body: urn:nasa:pds:context:target:planet.saturn;\r\n'
p1629
S'                NAIF ID of central body: 699.\r\n'
p1630
S'            </description>\r\n'
p1631
S'            <Internal_Reference>\r\n'
p1632
S'                <lid_reference>urn:nasa:pds:context:target:satellite.saturn.pan</lid_reference>\r\n'
p1633
S'                <reference_type>data_to_target</reference_type>\r\n'
p1634
S'            </Internal_Reference>\r\n'
p1635
S'        </Target_Identification>\r\n'
p1636
tp1637
a(S'        <Target_Identification>\r\n'
p1638
S'            <name>Pandora</name>\r\n'
p1639
S'            <alternate_designation>Saturn XVII (Pandora)</alternate_designation>\r\n'
p1640
S'            <alternate_designation>S/1980 S 26</alternate_designation>\r\n'
p1641
S'            <alternate_designation>NAIF ID 617</alternate_designation>\r\n'
p1642
S'            <type>Satellite</type>\r\n'
p1643
S'            <description>\r\n'
p1644
S'                NAIF ID: 617;\r\n'
p1645
S'                Center of motion: Saturn;\r\n'
p1646
S'                LID of central body: urn:nasa:pds:context:target:planet.saturn;\r\n'
p1647
S'                NAIF ID of central body: 699.\r\n'
p1648
S'            </description>\r\n'
p1649
S'            <Internal_Reference>\r\n'
p1650
S'                <lid_reference>urn:nasa:pds:context:target:satellite.saturn.pandora</lid_reference>\r\n'
p1651
S'                <reference_type>data_to_target</reference_type>\r\n'
p1652
S'            </Internal_Reference>\r\n'
p1653
S'        </Target_Identification>\r\n'
p1654
tp1655
a(S'        <Target_Identification>\r\n'
p1656
S'            <name>Phoebe</name>\r\n'
p1657
S'            <alternate_designation>Saturn IX (Phoebe)</alternate_designation>\r\n'
p1658
S'            <alternate_designation>NAIF ID 609</alternate_designation>\r\n'
p1659
S'            <type>Satellite</type>\r\n'
p1660
S'            <description>\r\n'
p1661
S'                NAIF ID: 609;\r\n'
p1662
S'                Center of motion: Saturn;\r\n'
p1663
S'                LID of central body: urn:nasa:pds:context:target:planet.saturn;\r\n'
p1664
S'                NAIF ID of central body: 699.\r\n'
p1665
S'            </description>\r\n'
p1666
S'            <Internal_Reference>\r\n'
p1667
S'                <lid_reference>urn:nasa:pds:context:target:satellite.saturn.phoebe</lid_reference>\r\n'
p1668
S'                <reference_type>data_to_target</reference_type>\r\n'
p1669
S'            </Internal_Reference>\r\n'
p1670
S'        </Target_Identification>\r\n'
p1671
tp1672
a(S'        <Target_Identification>\r\n'
p1673
S'            <name>Pi1 Gruis</name>\r\n'
p1674
S'            <alternate_designation>Pi1 Gru</alternate_designation>\r\n'
p1675
S'            <type>Star</type>\r\n'
p1676
S'            <Internal_Reference>\r\n'
p1677
S'                <lid_reference>urn:nasa:pds:context:target:star.pi1_gru</lid_reference>\r\n'
p1678
S'                <reference_type>data_to_target</reference_type>\r\n'
p1679
S'            </Internal_Reference>\r\n'
p1680
S'        </Target_Identification>\r\n'
p1681
tp1682
a(S'        <Target_Identification>\r\n'
p1683
S'            <name>Pleiades</name>\r\n'
p1684
S'            <type>Star Cluster</type>\r\n'
p1685
S'            <Internal_Reference>\r\n'
p1686
S'                <lid_reference>urn:nasa:pds:context:target:star_cluster.pleiades</lid_reference>\r\n'
p1687
S'                <reference_type>data_to_target</reference_type>\r\n'
p1688
S'            </Internal_Reference>\r\n'
p1689
S'        </Target_Identification>\r\n'
p1690
tp1691
a(S'        <Target_Identification>\r\n'
p1692
S'            <name>Polydeuces</name>\r\n'
p1693
S'            <alternate_designation>Saturn XXXIV (Polydeuces)</alternate_designation>\r\n'
p1694
S'            <alternate_designation>S/2004 S 5</alternate_designation>\r\n'
p1695
S'            <alternate_designation>NAIF ID 634</alternate_designation>\r\n'
p1696
S'            <type>Satellite</type>\r\n'
p1697
S'            <description>\r\n'
p1698
S'                NAIF ID: 634;\r\n'
p1699
S'                Center of motion: Saturn;\r\n'
p1700
S'                LID of central body: urn:nasa:pds:context:target:planet.saturn;\r\n'
p1701
S'                NAIF ID of central body: 699.\r\n'
p1702
S'            </description>\r\n'
p1703
S'            <Internal_Reference>\r\n'
p1704
S'                <lid_reference>urn:nasa:pds:context:target:satellite.saturn.polydeuces</lid_reference>\r\n'
p1705
S'                <reference_type>data_to_target</reference_type>\r\n'
p1706
S'            </Internal_Reference>\r\n'
p1707
S'        </Target_Identification>\r\n'
p1708
tp1709
a(S'        <Target_Identification>\r\n'
p1710
S'            <name>Probe</name>\r\n'
p1711
S'            <type>Equipment</type>\r\n'
p1712
S'            <Internal_Reference>\r\n'
p1713
S'                <lid_reference>urn:nasa:pds:context:target:equipment.probe</lid_reference>\r\n'
p1714
S'                <reference_type>data_to_target</reference_type>\r\n'
p1715
S'            </Internal_Reference>\r\n'
p1716
S'        </Target_Identification>\r\n'
p1717
tp1718
a(S'        <Target_Identification>\r\n'
p1719
S'            <name>Procyon</name>\r\n'
p1720
S'            <alternate_designation>Alpha Canis Minoris</alternate_designation>\r\n'
p1721
S'            <alternate_designation>Alpha CMi</alternate_designation>\r\n'
p1722
S'            <type>Star</type>\r\n'
p1723
S'            <Internal_Reference>\r\n'
p1724
S'                <lid_reference>urn:nasa:pds:context:target:star.alf_cmi</lid_reference>\r\n'
p1725
S'                <reference_type>data_to_target</reference_type>\r\n'
p1726
S'            </Internal_Reference>\r\n'
p1727
S'        </Target_Identification>\r\n'
p1728
tp1729
a(S'        <Target_Identification>\r\n'
p1730
S'            <name>Prometheus</name>\r\n'
p1731
S'            <alternate_designation>Saturn XVI (Prometheus)</alternate_designation>\r\n'
p1732
S'            <alternate_designation>S/1980 S 27</alternate_designation>\r\n'
p1733
S'            <alternate_designation>NAIF ID 616</alternate_designation>\r\n'
p1734
S'            <type>Satellite</type>\r\n'
p1735
S'            <description>\r\n'
p1736
S'                NAIF ID: 616;\r\n'
p1737
S'                Center of motion: Saturn;\r\n'
p1738
S'                LID of central body: urn:nasa:pds:context:target:planet.saturn;\r\n'
p1739
S'                NAIF ID of central body: 699.\r\n'
p1740
S'            </description>\r\n'
p1741
S'            <Internal_Reference>\r\n'
p1742
S'                <lid_reference>urn:nasa:pds:context:target:satellite.saturn.prometheus</lid_reference>\r\n'
p1743
S'                <reference_type>data_to_target</reference_type>\r\n'
p1744
S'            </Internal_Reference>\r\n'
p1745
S'        </Target_Identification>\r\n'
p1746
tp1747
a(S'        <Target_Identification>\r\n'
p1748
S'            <name>Psi Centauri</name>\r\n'
p1749
S'            <alternate_designation>Psi Cen</alternate_designation>\r\n'
p1750
S'            <type>Star</type>\r\n'
p1751
S'            <Internal_Reference>\r\n'
p1752
S'                <lid_reference>urn:nasa:pds:context:target:star.psi_cen</lid_reference>\r\n'
p1753
S'                <reference_type>data_to_target</reference_type>\r\n'
p1754
S'            </Internal_Reference>\r\n'
p1755
S'        </Target_Identification>\r\n'
p1756
tp1757
a(S'        <Target_Identification>\r\n'
p1758
S'            <name>R Aquarii</name>\r\n'
p1759
S'            <alternate_designation>R Aqr</alternate_designation>\r\n'
p1760
S'            <type>Star</type>\r\n'
p1761
S'            <Internal_Reference>\r\n'
p1762
S'                <lid_reference>urn:nasa:pds:context:target:star.r_aqr</lid_reference>\r\n'
p1763
S'                <reference_type>data_to_target</reference_type>\r\n'
p1764
S'            </Internal_Reference>\r\n'
p1765
S'        </Target_Identification>\r\n'
p1766
tp1767
a(S'        <Target_Identification>\r\n'
p1768
S'            <name>R Cassiopeiae</name>\r\n'
p1769
S'            <alternate_designation>R Cas</alternate_designation>\r\n'
p1770
S'            <type>Star</type>\r\n'
p1771
S'            <Internal_Reference>\r\n'
p1772
S'                <lid_reference>urn:nasa:pds:context:target:star.r_cas</lid_reference>\r\n'
p1773
S'                <reference_type>data_to_target</reference_type>\r\n'
p1774
S'            </Internal_Reference>\r\n'
p1775
S'        </Target_Identification>\r\n'
p1776
tp1777
a(S'        <Target_Identification>\r\n'
p1778
S'            <name>R Doradus</name>\r\n'
p1779
S'            <alternate_designation>R Dor</alternate_designation>\r\n'
p1780
S'            <type>Star</type>\r\n'
p1781
S'            <Internal_Reference>\r\n'
p1782
S'                <lid_reference>urn:nasa:pds:context:target:star.r_dor</lid_reference>\r\n'
p1783
S'                <reference_type>data_to_target</reference_type>\r\n'
p1784
S'            </Internal_Reference>\r\n'
p1785
S'        </Target_Identification>\r\n'
p1786
tp1787
a(S'        <Target_Identification>\r\n'
p1788
S'            <name>R Hydrae</name>\r\n'
p1789
S'            <alternate_designation>R Hya</alternate_designation>\r\n'
p1790
S'            <type>Star</type>\r\n'
p1791
S'            <Internal_Reference>\r\n'
p1792
S'                <lid_reference>urn:nasa:pds:context:target:star.r_hya</lid_reference>\r\n'
p1793
S'                <reference_type>data_to_target</reference_type>\r\n'
p1794
S'            </Internal_Reference>\r\n'
p1795
S'        </Target_Identification>\r\n'
p1796
tp1797
a(S'        <Target_Identification>\r\n'
p1798
S'            <name>R Leo</name>\r\n'
p1799
S'            <alternate_designation>R Leo</alternate_designation>\r\n'
p1800
S'            <type>Star</type>\r\n'
p1801
S'            <Internal_Reference>\r\n'
p1802
S'                <lid_reference>urn:nasa:pds:context:target:star.r_leo</lid_reference>\r\n'
p1803
S'                <reference_type>data_to_target</reference_type>\r\n'
p1804
S'            </Internal_Reference>\r\n'
p1805
S'        </Target_Identification>\r\n'
p1806
tp1807
a(S'        <Target_Identification>\r\n'
p1808
S'            <name>R Lyrae</name>\r\n'
p1809
S'            <alternate_designation>R Lyr</alternate_designation>\r\n'
p1810
S'            <type>Star</type>\r\n'
p1811
S'            <Internal_Reference>\r\n'
p1812
S'                <lid_reference>urn:nasa:pds:context:target:star.r_lyr</lid_reference>\r\n'
p1813
S'                <reference_type>data_to_target</reference_type>\r\n'
p1814
S'            </Internal_Reference>\r\n'
p1815
S'        </Target_Identification>\r\n'
p1816
tp1817
a(S'        <Target_Identification>\r\n'
p1818
S'            <name>RW Leonis Minoris</name>\r\n'
p1819
S'            <alternate_designation>RW LMi</alternate_designation>\r\n'
p1820
S'            <type>Star</type>\r\n'
p1821
S'            <Internal_Reference>\r\n'
p1822
S'                <lid_reference>urn:nasa:pds:context:target:star.rw_lmi</lid_reference>\r\n'
p1823
S'                <reference_type>data_to_target</reference_type>\r\n'
p1824
S'            </Internal_Reference>\r\n'
p1825
S'        </Target_Identification>\r\n'
p1826
tp1827
a(S'        <Target_Identification>\r\n'
p1828
S'            <name>RX Leporis</name>\r\n'
p1829
S'            <alternate_designation>RX Lep</alternate_designation>\r\n'
p1830
S'            <type>Star</type>\r\n'
p1831
S'            <Internal_Reference>\r\n'
p1832
S'                <lid_reference>urn:nasa:pds:context:target:star.rx_lep</lid_reference>\r\n'
p1833
S'                <reference_type>data_to_target</reference_type>\r\n'
p1834
S'            </Internal_Reference>\r\n'
p1835
S'        </Target_Identification>\r\n'
p1836
tp1837
a(S'        <Target_Identification>\r\n'
p1838
S'            <name>Regulus</name>\r\n'
p1839
S'            <alternate_designation>Alpha Leo</alternate_designation>\r\n'
p1840
S'            <alternate_designation>Alpha Leo</alternate_designation>\r\n'
p1841
S'            <type>Star</type>\r\n'
p1842
S'            <Internal_Reference>\r\n'
p1843
S'                <lid_reference>urn:nasa:pds:context:target:star.alf_leo</lid_reference>\r\n'
p1844
S'                <reference_type>data_to_target</reference_type>\r\n'
p1845
S'            </Internal_Reference>\r\n'
p1846
S'        </Target_Identification>\r\n'
p1847
tp1848
a(S'        <Target_Identification>\r\n'
p1849
S'            <name>Rhea</name>\r\n'
p1850
S'            <alternate_designation>Saturn V (Rhea)</alternate_designation>\r\n'
p1851
S'            <alternate_designation>NAIF ID 605</alternate_designation>\r\n'
p1852
S'            <type>Satellite</type>\r\n'
p1853
S'            <description>\r\n'
p1854
S'                NAIF ID: 605;\r\n'
p1855
S'                Center of motion: Saturn;\r\n'
p1856
S'                LID of central body: urn:nasa:pds:context:target:planet.saturn;\r\n'
p1857
S'                NAIF ID of central body: 699.\r\n'
p1858
S'            </description>\r\n'
p1859
S'            <Internal_Reference>\r\n'
p1860
S'                <lid_reference>urn:nasa:pds:context:target:satellite.saturn.rhea</lid_reference>\r\n'
p1861
S'                <reference_type>data_to_target</reference_type>\r\n'
p1862
S'            </Internal_Reference>\r\n'
p1863
S'        </Target_Identification>\r\n'
p1864
tp1865
a(S'        <Target_Identification>\r\n'
p1866
S'            <name>Rho Persei</name>\r\n'
p1867
S'            <alternate_designation>Rho Per</alternate_designation>\r\n'
p1868
S'            <type>Star</type>\r\n'
p1869
S'            <Internal_Reference>\r\n'
p1870
S'                <lid_reference>urn:nasa:pds:context:target:star.rho_per</lid_reference>\r\n'
p1871
S'                <reference_type>data_to_target</reference_type>\r\n'
p1872
S'            </Internal_Reference>\r\n'
p1873
S'        </Target_Identification>\r\n'
p1874
tp1875
a(S'        <Target_Identification>\r\n'
p1876
S'            <name>S Leporis</name>\r\n'
p1877
S'            <alternate_designation>S Lep</alternate_designation>\r\n'
p1878
S'            <type>Star</type>\r\n'
p1879
S'            <Internal_Reference>\r\n'
p1880
S'                <lid_reference>urn:nasa:pds:context:target:star.s_lep</lid_reference>\r\n'
p1881
S'                <reference_type>data_to_target</reference_type>\r\n'
p1882
S'            </Internal_Reference>\r\n'
p1883
S'        </Target_Identification>\r\n'
p1884
tp1885
a(S'        <Target_Identification>\r\n'
p1886
S'            <name>S/2004 S 12</name>\r\n'
p1887
S'            <alternate_designation>NAIF ID 65040</alternate_designation>\r\n'
p1888
S'            <type>Satellite</type>\r\n'
p1889
S'            <description>\r\n'
p1890
S'                NAIF ID: 65040;\r\n'
p1891
S'                Center of motion: Saturn;\r\n'
p1892
S'                LID of central body: urn:nasa:pds:context:target:planet.saturn;\r\n'
p1893
S'                NAIF ID of central body: 699.\r\n'
p1894
S'            </description>\r\n'
p1895
S'            <Internal_Reference>\r\n'
p1896
S'                <lid_reference>urn:nasa:pds:context:target:satellite.saturn.s2004s12</lid_reference>\r\n'
p1897
S'                <reference_type>data_to_target</reference_type>\r\n'
p1898
S'            </Internal_Reference>\r\n'
p1899
S'        </Target_Identification>\r\n'
p1900
tp1901
a(S'        <Target_Identification>\r\n'
p1902
S'            <name>S/2004 S 13</name>\r\n'
p1903
S'            <alternate_designation>NAIF ID 65041</alternate_designation>\r\n'
p1904
S'            <type>Satellite</type>\r\n'
p1905
S'            <description>\r\n'
p1906
S'                NAIF ID: 65041;\r\n'
p1907
S'                Center of motion: Saturn;\r\n'
p1908
S'                LID of central body: urn:nasa:pds:context:target:planet.saturn;\r\n'
p1909
S'                NAIF ID of central body: 699.\r\n'
p1910
S'            </description>\r\n'
p1911
S'            <Internal_Reference>\r\n'
p1912
S'                <lid_reference>urn:nasa:pds:context:target:satellite.saturn.s2004s13</lid_reference>\r\n'
p1913
S'                <reference_type>data_to_target</reference_type>\r\n'
p1914
S'            </Internal_Reference>\r\n'
p1915
S'        </Target_Identification>\r\n'
p1916
tp1917
a(S'        <Target_Identification>\r\n'
p1918
S'            <name>Saturn Rings</name>\r\n'
p1919
S'            <type>Ring</type>\r\n'
p1920
S'            <Internal_Reference>\r\n'
p1921
S'                <lid_reference>urn:nasa:pds:context:target:ring.saturn_rings</lid_reference>\r\n'
p1922
S'                <reference_type>data_to_target</reference_type>\r\n'
p1923
S'            </Internal_Reference>\r\n'
p1924
S'        </Target_Identification>\r\n'
p1925
tp1926
a(S'        <Target_Identification>\r\n'
p1927
S'            <name>Saturn</name>\r\n'
p1928
S'            <alternate_designation>NAIF ID 699</alternate_designation>\r\n'
p1929
S'            <type>Planet</type>\r\n'
p1930
S'            <description>\r\n'
p1931
S'                NAIF ID: 699;\r\n'
p1932
S'                Center of motion: Sun;\r\n'
p1933
S'                LID of central body: urn:nasa:pds:context:target:sun.sun;\r\n'
p1934
S'                NAIF ID of central body: 10.\r\n'
p1935
S'            </description>\r\n'
p1936
S'            <Internal_Reference>\r\n'
p1937
S'                <lid_reference>urn:nasa:pds:context:target:planet.saturn</lid_reference>\r\n'
p1938
S'                <reference_type>data_to_target</reference_type>\r\n'
p1939
S'            </Internal_Reference>\r\n'
p1940
S'        </Target_Identification>\r\n'
p1941
tp1942
a(S'        <Target_Identification>\r\n'
p1943
S'            <name>Scat Light</name>\r\n'
p1944
S'            <type>Calibration Field</type>\r\n'
p1945
S'            <Internal_Reference>\r\n'
p1946
S'                <lid_reference>urn:nasa:pds:context:target:calibration_field.scat_light</lid_reference>\r\n'
p1947
S'                <reference_type>data_to_target</reference_type>\r\n'
p1948
S'            </Internal_Reference>\r\n'
p1949
S'        </Target_Identification>\r\n'
p1950
tp1951
a(S'        <Target_Identification>\r\n'
p1952
S'            <name>Siarnaq</name>\r\n'
p1953
S'            <alternate_designation>Saturn XXIX (Siarnaq)</alternate_designation>\r\n'
p1954
S'            <alternate_designation>S/2000 S 3</alternate_designation>\r\n'
p1955
S'            <alternate_designation>NAIF ID 629</alternate_designation>\r\n'
p1956
S'            <type>Satellite</type>\r\n'
p1957
S'            <description>\r\n'
p1958
S'                NAIF ID: 629;\r\n'
p1959
S'                Center of motion: Saturn;\r\n'
p1960
S'                LID of central body: urn:nasa:pds:context:target:planet.saturn;\r\n'
p1961
S'                NAIF ID of central body: 699.\r\n'
p1962
S'            </description>\r\n'
p1963
S'            <Internal_Reference>\r\n'
p1964
S'                <lid_reference>urn:nasa:pds:context:target:satellite.saturn.siarnaq</lid_reference>\r\n'
p1965
S'                <reference_type>data_to_target</reference_type>\r\n'
p1966
S'            </Internal_Reference>\r\n'
p1967
S'        </Target_Identification>\r\n'
p1968
tp1969
a(S'        <Target_Identification>\r\n'
p1970
S'            <name>Sirius</name>\r\n'
p1971
S'            <alternate_designation>Alpha Canis Majoris</alternate_designation>\r\n'
p1972
S'            <alternate_designation>Alpha CMa</alternate_designation>\r\n'
p1973
S'            <type>Star</type>\r\n'
p1974
S'            <Internal_Reference>\r\n'
p1975
S'                <lid_reference>urn:nasa:pds:context:target:star.alf_cma</lid_reference>\r\n'
p1976
S'                <reference_type>data_to_target</reference_type>\r\n'
p1977
S'            </Internal_Reference>\r\n'
p1978
S'        </Target_Identification>\r\n'
p1979
tp1980
a(S'        <Target_Identification>\r\n'
p1981
S'            <name>Skathi</name>\r\n'
p1982
S'            <alternate_designation>Saturn XXVII (Skathi)</alternate_designation>\r\n'
p1983
S'            <alternate_designation>S/2000 S 8</alternate_designation>\r\n'
p1984
S'            <alternate_designation>NAIF ID 627</alternate_designation>\r\n'
p1985
S'            <type>Satellite</type>\r\n'
p1986
S'            <description>\r\n'
p1987
S'                NAIF ID: 627;\r\n'
p1988
S'                Center of motion: Saturn;\r\n'
p1989
S'                LID of central body: urn:nasa:pds:context:target:planet.saturn;\r\n'
p1990
S'                NAIF ID of central body: 699.\r\n'
p1991
S'            </description>\r\n'
p1992
S'            <Internal_Reference>\r\n'
p1993
S'                <lid_reference>urn:nasa:pds:context:target:satellite.saturn.skathi</lid_reference>\r\n'
p1994
S'                <reference_type>data_to_target</reference_type>\r\n'
p1995
S'            </Internal_Reference>\r\n'
p1996
S'        </Target_Identification>\r\n'
p1997
tp1998
a(S'        <Target_Identification>\r\n'
p1999
S'            <name>Skoll</name>\r\n'
p2000
S'            <alternate_designation>Saturn XLVII (Skoll)</alternate_designation>\r\n'
p2001
S'            <alternate_designation>S/2006 S 8</alternate_designation>\r\n'
p2002
S'            <alternate_designation>NAIF ID 647</alternate_designation>\r\n'
p2003
S'            <type>Satellite</type>\r\n'
p2004
S'            <description>\r\n'
p2005
S'                NAIF ID: 647;\r\n'
p2006
S'                Center of motion: Saturn;\r\n'
p2007
S'                LID of central body: urn:nasa:pds:context:target:planet.saturn;\r\n'
p2008
S'                NAIF ID of central body: 699.\r\n'
p2009
S'            </description>\r\n'
p2010
S'            <Internal_Reference>\r\n'
p2011
S'                <lid_reference>urn:nasa:pds:context:target:satellite.saturn.skoll</lid_reference>\r\n'
p2012
S'                <reference_type>data_to_target</reference_type>\r\n'
p2013
S'            </Internal_Reference>\r\n'
p2014
S'        </Target_Identification>\r\n'
p2015
tp2016
a(S'        <Target_Identification>\r\n'
p2017
S'            <name>Sky</name>\r\n'
p2018
S'            <type>Calibration Field</type>\r\n'
p2019
S'            <Internal_Reference>\r\n'
p2020
S'                <lid_reference>urn:nasa:pds:context:target:calibration_field.sky</lid_reference>\r\n'
p2021
S'                <reference_type>data_to_target</reference_type>\r\n'
p2022
S'            </Internal_Reference>\r\n'
p2023
S'        </Target_Identification>\r\n'
p2024
tp2025
a(S'        <Target_Identification>\r\n'
p2026
S'            <name>Spica</name>\r\n'
p2027
S'            <alternate_designation>Alpha Virginis</alternate_designation>\r\n'
p2028
S'            <alternate_designation>Alpha Vir</alternate_designation>\r\n'
p2029
S'            <type>Star</type>\r\n'
p2030
S'            <Internal_Reference>\r\n'
p2031
S'                <lid_reference>urn:nasa:pds:context:target:star.alf_vir</lid_reference>\r\n'
p2032
S'                <reference_type>data_to_target</reference_type>\r\n'
p2033
S'            </Internal_Reference>\r\n'
p2034
S'        </Target_Identification>\r\n'
p2035
tp2036
a(S'        <Target_Identification>\r\n'
p2037
S'            <name>Star</name>\r\n'
p2038
S'            <type>Calibration Field</type>\r\n'
p2039
S'            <Internal_Reference>\r\n'
p2040
S'                <lid_reference>urn:nasa:pds:context:target:calibration_field.star</lid_reference>\r\n'
p2041
S'                <reference_type>data_to_target</reference_type>\r\n'
p2042
S'            </Internal_Reference>\r\n'
p2043
S'        </Target_Identification>\r\n'
p2044
tp2045
a(S'        <Target_Identification>\r\n'
p2046
S'            <name>Sun</name>\r\n'
p2047
S'            <alternate_designation>NAIF ID 10</alternate_designation>\r\n'
p2048
S'            <type>Sun</type>\r\n'
p2049
S'            <description>\r\n'
p2050
S'                NAIF ID: 10;\r\n'
p2051
S'                Center of motion: N/A;\r\n'
p2052
S'                LID of central body: N/A;\r\n'
p2053
S'                NAIF ID of central body: N/A.\r\n'
p2054
S'            </description>\r\n'
p2055
S'            <Internal_Reference>\r\n'
p2056
S'                <lid_reference>urn:nasa:pds:context:target:sun.sun</lid_reference>\r\n'
p2057
S'                <reference_type>data_to_target</reference_type>\r\n'
p2058
S'            </Internal_Reference>\r\n'
p2059
S'        </Target_Identification>\r\n'
p2060
tp2061
a(S'        <Target_Identification>\r\n'
p2062
S'            <name>Surtur</name>\r\n'
p2063
S'            <alternate_designation>Saturn XLVIII (Surtur)</alternate_designation>\r\n'
p2064
S'            <alternate_designation>S/2006 S 7</alternate_designation>\r\n'
p2065
S'            <alternate_designation>NAIF ID 648</alternate_designation>\r\n'
p2066
S'            <type>Satellite</type>\r\n'
p2067
S'            <description>\r\n'
p2068
S'                NAIF ID: 648;\r\n'
p2069
S'                Center of motion: Saturn;\r\n'
p2070
S'                LID of central body: urn:nasa:pds:context:target:planet.saturn;\r\n'
p2071
S'                NAIF ID of central body: 699.\r\n'
p2072
S'            </description>\r\n'
p2073
S'            <Internal_Reference>\r\n'
p2074
S'                <lid_reference>urn:nasa:pds:context:target:satellite.saturn.surtur</lid_reference>\r\n'
p2075
S'                <reference_type>data_to_target</reference_type>\r\n'
p2076
S'            </Internal_Reference>\r\n'
p2077
S'        </Target_Identification>\r\n'
p2078
tp2079
a(S'        <Target_Identification>\r\n'
p2080
S'            <name>Suttungr</name>\r\n'
p2081
S'            <alternate_designation>Saturn XXIII (Suttungr)</alternate_designation>\r\n'
p2082
S'            <alternate_designation>S/2000 S 12</alternate_designation>\r\n'
p2083
S'            <alternate_designation>NAIF ID 623</alternate_designation>\r\n'
p2084
S'            <type>Satellite</type>\r\n'
p2085
S'            <description>\r\n'
p2086
S'                NAIF ID: 623;\r\n'
p2087
S'                Center of motion: Saturn;\r\n'
p2088
S'                LID of central body: urn:nasa:pds:context:target:planet.saturn;\r\n'
p2089
S'                NAIF ID of central body: 699.\r\n'
p2090
S'            </description>\r\n'
p2091
S'            <Internal_Reference>\r\n'
p2092
S'                <lid_reference>urn:nasa:pds:context:target:satellite.saturn.suttungr</lid_reference>\r\n'
p2093
S'                <reference_type>data_to_target</reference_type>\r\n'
p2094
S'            </Internal_Reference>\r\n'
p2095
S'        </Target_Identification>\r\n'
p2096
tp2097
a(S'        <Target_Identification>\r\n'
p2098
S'            <name>T Cephei</name>\r\n'
p2099
S'            <alternate_designation>T Cep</alternate_designation>\r\n'
p2100
S'            <type>Star</type>\r\n'
p2101
S'            <Internal_Reference>\r\n'
p2102
S'                <lid_reference>urn:nasa:pds:context:target:star.t_cep</lid_reference>\r\n'
p2103
S'                <reference_type>data_to_target</reference_type>\r\n'
p2104
S'            </Internal_Reference>\r\n'
p2105
S'        </Target_Identification>\r\n'
p2106
tp2107
a(S'        <Target_Identification>\r\n'
p2108
S'            <name>TX Camelopardalis</name>\r\n'
p2109
S'            <alternate_designation>TX Cam</alternate_designation>\r\n'
p2110
S'            <type>Star</type>\r\n'
p2111
S'            <Internal_Reference>\r\n'
p2112
S'                <lid_reference>urn:nasa:pds:context:target:star.tx_cam</lid_reference>\r\n'
p2113
S'                <reference_type>data_to_target</reference_type>\r\n'
p2114
S'            </Internal_Reference>\r\n'
p2115
S'        </Target_Identification>\r\n'
p2116
tp2117
a(S'        <Target_Identification>\r\n'
p2118
S'            <name>Tarqeq</name>\r\n'
p2119
S'            <alternate_designation>Saturn LII (Tarqeq)</alternate_designation>\r\n'
p2120
S'            <alternate_designation>S/2007 S 1</alternate_designation>\r\n'
p2121
S'            <alternate_designation>NAIF ID 652</alternate_designation>\r\n'
p2122
S'            <type>Satellite</type>\r\n'
p2123
S'            <description>\r\n'
p2124
S'                NAIF ID: 652;\r\n'
p2125
S'                Center of motion: Saturn;\r\n'
p2126
S'                LID of central body: urn:nasa:pds:context:target:planet.saturn;\r\n'
p2127
S'                NAIF ID of central body: 699.\r\n'
p2128
S'            </description>\r\n'
p2129
S'            <Internal_Reference>\r\n'
p2130
S'                <lid_reference>urn:nasa:pds:context:target:satellite.saturn.tarqeq</lid_reference>\r\n'
p2131
S'                <reference_type>data_to_target</reference_type>\r\n'
p2132
S'            </Internal_Reference>\r\n'
p2133
S'        </Target_Identification>\r\n'
p2134
tp2135
a(S'        <Target_Identification>\r\n'
p2136
S'            <name>Tarvos</name>\r\n'
p2137
S'            <alternate_designation>Saturn XXI (Tarvos)</alternate_designation>\r\n'
p2138
S'            <alternate_designation>S/2000 S 4</alternate_designation>\r\n'
p2139
S'            <alternate_designation>NAIF ID 621</alternate_designation>\r\n'
p2140
S'            <type>Satellite</type>\r\n'
p2141
S'            <description>\r\n'
p2142
S'                NAIF ID: 621;\r\n'
p2143
S'                Center of motion: Saturn;\r\n'
p2144
S'                LID of central body: urn:nasa:pds:context:target:planet.saturn;\r\n'
p2145
S'                NAIF ID of central body: 699.\r\n'
p2146
S'            </description>\r\n'
p2147
S'            <Internal_Reference>\r\n'
p2148
S'                <lid_reference>urn:nasa:pds:context:target:satellite.saturn.tarvos</lid_reference>\r\n'
p2149
S'                <reference_type>data_to_target</reference_type>\r\n'
p2150
S'            </Internal_Reference>\r\n'
p2151
S'        </Target_Identification>\r\n'
p2152
tp2153
a(S'        <Target_Identification>\r\n'
p2154
S'            <name>Telesto</name>\r\n'
p2155
S'            <alternate_designation>Saturn XIII (Telesto)</alternate_designation>\r\n'
p2156
S'            <alternate_designation>S/1980 S 13</alternate_designation>\r\n'
p2157
S'            <alternate_designation>NAIF ID 613</alternate_designation>\r\n'
p2158
S'            <type>Satellite</type>\r\n'
p2159
S'            <description>\r\n'
p2160
S'                NAIF ID: 613;\r\n'
p2161
S'                Center of motion: Saturn;\r\n'
p2162
S'                LID of central body: urn:nasa:pds:context:target:planet.saturn;\r\n'
p2163
S'                NAIF ID of central body: 699.\r\n'
p2164
S'            </description>\r\n'
p2165
S'            <Internal_Reference>\r\n'
p2166
S'                <lid_reference>urn:nasa:pds:context:target:satellite.saturn.telesto</lid_reference>\r\n'
p2167
S'                <reference_type>data_to_target</reference_type>\r\n'
p2168
S'            </Internal_Reference>\r\n'
p2169
S'        </Target_Identification>\r\n'
p2170
tp2171
a(S'        <Target_Identification>\r\n'
p2172
S'            <name>Test Image</name>\r\n'
p2173
S'            <type>Calibrator</type>\r\n'
p2174
S'            <Internal_Reference>\r\n'
p2175
S'                <lid_reference>urn:nasa:pds:context:target:calibrator.test_image</lid_reference>\r\n'
p2176
S'                <reference_type>data_to_target</reference_type>\r\n'
p2177
S'            </Internal_Reference>\r\n'
p2178
S'        </Target_Identification>\r\n'
p2179
tp2180
a(S'        <Target_Identification>\r\n'
p2181
S'            <name>Tethys</name>\r\n'
p2182
S'            <alternate_designation>Saturn III (Tethys)</alternate_designation>\r\n'
p2183
S'            <alternate_designation>NAIF ID 603</alternate_designation>\r\n'
p2184
S'            <type>Satellite</type>\r\n'
p2185
S'            <description>\r\n'
p2186
S'                NAIF ID: 603;\r\n'
p2187
S'                Center of motion: Saturn;\r\n'
p2188
S'                LID of central body: urn:nasa:pds:context:target:planet.saturn;\r\n'
p2189
S'                NAIF ID of central body: 699.\r\n'
p2190
S'            </description>\r\n'
p2191
S'            <Internal_Reference>\r\n'
p2192
S'                <lid_reference>urn:nasa:pds:context:target:satellite.saturn.tethys</lid_reference>\r\n'
p2193
S'                <reference_type>data_to_target</reference_type>\r\n'
p2194
S'            </Internal_Reference>\r\n'
p2195
S'        </Target_Identification>\r\n'
p2196
tp2197
a(S'        <Target_Identification>\r\n'
p2198
S'            <name>Theta Arae</name>\r\n'
p2199
S'            <alternate_designation>Theta Ara</alternate_designation>\r\n'
p2200
S'            <type>Star</type>\r\n'
p2201
S'            <Internal_Reference>\r\n'
p2202
S'                <lid_reference>urn:nasa:pds:context:target:star.tet_ara</lid_reference>\r\n'
p2203
S'                <reference_type>data_to_target</reference_type>\r\n'
p2204
S'            </Internal_Reference>\r\n'
p2205
S'        </Target_Identification>\r\n'
p2206
tp2207
a(S'        <Target_Identification>\r\n'
p2208
S'            <name>Theta Hydrae</name>\r\n'
p2209
S'            <alternate_designation>Theta Hya</alternate_designation>\r\n'
p2210
S'            <type>Star</type>\r\n'
p2211
S'            <Internal_Reference>\r\n'
p2212
S'                <lid_reference>urn:nasa:pds:context:target:star.tet_hya</lid_reference>\r\n'
p2213
S'                <reference_type>data_to_target</reference_type>\r\n'
p2214
S'            </Internal_Reference>\r\n'
p2215
S'        </Target_Identification>\r\n'
p2216
tp2217
a(S'        <Target_Identification>\r\n'
p2218
S'            <name>Thrymr</name>\r\n'
p2219
S'            <alternate_designation>Saturn XXX (Thrymr)</alternate_designation>\r\n'
p2220
S'            <alternate_designation>S/2000 S 7</alternate_designation>\r\n'
p2221
S'            <alternate_designation>NAIF ID 630</alternate_designation>\r\n'
p2222
S'            <type>Satellite</type>\r\n'
p2223
S'            <description>\r\n'
p2224
S'                NAIF ID: 630;\r\n'
p2225
S'                Center of motion: Saturn;\r\n'
p2226
S'                LID of central body: urn:nasa:pds:context:target:planet.saturn;\r\n'
p2227
S'                NAIF ID of central body: 699.\r\n'
p2228
S'            </description>\r\n'
p2229
S'            <Internal_Reference>\r\n'
p2230
S'                <lid_reference>urn:nasa:pds:context:target:satellite.saturn.thrymr</lid_reference>\r\n'
p2231
S'                <reference_type>data_to_target</reference_type>\r\n'
p2232
S'            </Internal_Reference>\r\n'
p2233
S'        </Target_Identification>\r\n'
p2234
tp2235
a(S'        <Target_Identification>\r\n'
p2236
S'            <name>Titan</name>\r\n'
p2237
S'            <alternate_designation>Saturn VI (Titan)</alternate_designation>\r\n'
p2238
S'            <alternate_designation>NAIF ID 606</alternate_designation>\r\n'
p2239
S'            <type>Satellite</type>\r\n'
p2240
S'            <description>\r\n'
p2241
S'                NAIF ID: 606;\r\n'
p2242
S'                Center of motion: Saturn;\r\n'
p2243
S'                LID of central body: urn:nasa:pds:context:target:planet.saturn;\r\n'
p2244
S'                NAIF ID of central body: 699.\r\n'
p2245
S'            </description>\r\n'
p2246
S'            <Internal_Reference>\r\n'
p2247
S'                <lid_reference>urn:nasa:pds:context:target:satellite.saturn.titan</lid_reference>\r\n'
p2248
S'                <reference_type>data_to_target</reference_type>\r\n'
p2249
S'            </Internal_Reference>\r\n'
p2250
S'        </Target_Identification>\r\n'
p2251
tp2252
a(S'        <Target_Identification>\r\n'
p2253
S'            <name>Unknown</name>\r\n'
p2254
S'            <type>Calibrator</type>\r\n'
p2255
S'            <Internal_Reference>\r\n'
p2256
S'                <lid_reference>urn:nasa:pds:context:target:calibrator.unk</lid_reference>\r\n'
p2257
S'                <reference_type>data_to_target</reference_type>\r\n'
p2258
S'            </Internal_Reference>\r\n'
p2259
S'        </Target_Identification>\r\n'
p2260
tp2261
a(S'        <Target_Identification>\r\n'
p2262
S'            <name>V Hydrae</name>\r\n'
p2263
S'            <alternate_designation>V Hya</alternate_designation>\r\n'
p2264
S'            <type>Star</type>\r\n'
p2265
S'            <Internal_Reference>\r\n'
p2266
S'                <lid_reference>urn:nasa:pds:context:target:star.v_hya</lid_reference>\r\n'
p2267
S'                <reference_type>data_to_target</reference_type>\r\n'
p2268
S'            </Internal_Reference>\r\n'
p2269
S'        </Target_Identification>\r\n'
p2270
tp2271
a(S'        <Target_Identification>\r\n'
p2272
S'            <name>VX Sagittarii</name>\r\n'
p2273
S'            <alternate_designation>VX Sgr</alternate_designation>\r\n'
p2274
S'            <type>Star</type>\r\n'
p2275
S'            <Internal_Reference>\r\n'
p2276
S'                <lid_reference>urn:nasa:pds:context:target:star.vx_sgr</lid_reference>\r\n'
p2277
S'                <reference_type>data_to_target</reference_type>\r\n'
p2278
S'            </Internal_Reference>\r\n'
p2279
S'        </Target_Identification>\r\n'
p2280
tp2281
a(S'        <Target_Identification>\r\n'
p2282
S'            <name>Vega</name>\r\n'
p2283
S'            <alternate_designation>Alpha Lyrae</alternate_designation>\r\n'
p2284
S'            <alternate_designation>Alpha Lyr</alternate_designation>\r\n'
p2285
S'            <type>Star</type>\r\n'
p2286
S'            <Internal_Reference>\r\n'
p2287
S'                <lid_reference>urn:nasa:pds:context:target:star.alf_lyr</lid_reference>\r\n'
p2288
S'                <reference_type>data_to_target</reference_type>\r\n'
p2289
S'            </Internal_Reference>\r\n'
p2290
S'        </Target_Identification>\r\n'
p2291
tp2292
a(S'        <Target_Identification>\r\n'
p2293
S'            <name>Venus</name>\r\n'
p2294
S'            <alternate_designation>NAIF ID 299</alternate_designation>\r\n'
p2295
S'            <type>Planet</type>\r\n'
p2296
S'            <description>\r\n'
p2297
S'                NAIF ID: 299;\r\n'
p2298
S'                Center of motion: Sun;\r\n'
p2299
S'                LID of central body: urn:nasa:pds:context:target:sun.sun;\r\n'
p2300
S'                NAIF ID of central body: 10.\r\n'
p2301
S'            </description>\r\n'
p2302
S'            <Internal_Reference>\r\n'
p2303
S'                <lid_reference>urn:nasa:pds:context:target:planet.venus</lid_reference>\r\n'
p2304
S'                <reference_type>data_to_target</reference_type>\r\n'
p2305
S'            </Internal_Reference>\r\n'
p2306
S'        </Target_Identification>\r\n'
p2307
tp2308
a(S'        <Target_Identification>\r\n'
p2309
S'            <name>W Aquilae</name>\r\n'
p2310
S'            <alternate_designation>W Aql</alternate_designation>\r\n'
p2311
S'            <type>Star</type>\r\n'
p2312
S'            <Internal_Reference>\r\n'
p2313
S'                <lid_reference>urn:nasa:pds:context:target:star.w_aql</lid_reference>\r\n'
p2314
S'                <reference_type>data_to_target</reference_type>\r\n'
p2315
S'            </Internal_Reference>\r\n'
p2316
S'        </Target_Identification>\r\n'
p2317
tp2318
a(S'        <Target_Identification>\r\n'
p2319
S'            <name>W Hydrae</name>\r\n'
p2320
S'            <alternate_designation>W Hya</alternate_designation>\r\n'
p2321
S'            <type>Star</type>\r\n'
p2322
S'            <Internal_Reference>\r\n'
p2323
S'                <lid_reference>urn:nasa:pds:context:target:star.w_hya</lid_reference>\r\n'
p2324
S'                <reference_type>data_to_target</reference_type>\r\n'
p2325
S'            </Internal_Reference>\r\n'
p2326
S'        </Target_Identification>\r\n'
p2327
tp2328
a(S'        <Target_Identification>\r\n'
p2329
S'            <name>X Ophiuchi</name>\r\n'
p2330
S'            <alternate_designation>X Oph</alternate_designation>\r\n'
p2331
S'            <type>Star</type>\r\n'
p2332
S'            <Internal_Reference>\r\n'
p2333
S'                <lid_reference>urn:nasa:pds:context:target:star.x_oph</lid_reference>\r\n'
p2334
S'                <reference_type>data_to_target</reference_type>\r\n'
p2335
S'            </Internal_Reference>\r\n'
p2336
S'        </Target_Identification>\r\n'
p2337
tp2338
a(S'        <Target_Identification>\r\n'
p2339
S'            <name>Ymir</name>\r\n'
p2340
S'            <alternate_designation>Saturn XIX (Ymir)</alternate_designation>\r\n'
p2341
S'            <alternate_designation>S/2000 S 1</alternate_designation>\r\n'
p2342
S'            <alternate_designation>NAIF ID 619</alternate_designation>\r\n'
p2343
S'            <type>Satellite</type>\r\n'
p2344
S'            <description>\r\n'
p2345
S'                NAIF ID: 619;\r\n'
p2346
S'                Center of motion: Saturn;\r\n'
p2347
S'                LID of central body: urn:nasa:pds:context:target:planet.saturn;\r\n'
p2348
S'                NAIF ID of central body: 699.\r\n'
p2349
S'            </description>\r\n'
p2350
S'            <Internal_Reference>\r\n'
p2351
S'                <lid_reference>urn:nasa:pds:context:target:satellite.saturn.ymir</lid_reference>\r\n'
p2352
S'                <reference_type>data_to_target</reference_type>\r\n'
p2353
S'            </Internal_Reference>\r\n'
p2354
S'        </Target_Identification>\r\n'
p2355
tp2356
a(S'        <Target_Identification>\r\n'
p2357
S'            <name>Zeta Canis Majoris</name>\r\n'
p2358
S'            <alternate_designation>Zeta CMa</alternate_designation>\r\n'
p2359
S'            <type>Star</type>\r\n'
p2360
S'            <Internal_Reference>\r\n'
p2361
S'                <lid_reference>urn:nasa:pds:context:target:star.zet_cma</lid_reference>\r\n'
p2362
S'                <reference_type>data_to_target</reference_type>\r\n'
p2363
S'            </Internal_Reference>\r\n'
p2364
S'        </Target_Identification>\r\n'
p2365
tp2366
a(S'        <Target_Identification>\r\n'
p2367
S'            <name>Zeta Centauri</name>\r\n'
p2368
S'            <alternate_designation>Zeta Cen</alternate_designation>\r\n'
p2369
S'            <type>Star</type>\r\n'
p2370
S'            <Internal_Reference>\r\n'
p2371
S'                <lid_reference>urn:nasa:pds:context:target:star.zet_cen</lid_reference>\r\n'
p2372
S'                <reference_type>data_to_target</reference_type>\r\n'
p2373
S'            </Internal_Reference>\r\n'
p2374
S'        </Target_Identification>\r\n'
p2375
tp2376
a(S'        <Target_Identification>\r\n'
p2377
S'            <name>Zeta Ophiuchi</name>\r\n'
p2378
S'            <alternate_designation>Zeta Oph</alternate_designation>\r\n'
p2379
S'            <type>Star</type>\r\n'
p2380
S'            <Internal_Reference>\r\n'
p2381
S'                <lid_reference>urn:nasa:pds:context:target:star.zet_oph</lid_reference>\r\n'
p2382
S'                <reference_type>data_to_target</reference_type>\r\n'
p2383
S'            </Internal_Reference>\r\n'
p2384
S'        </Target_Identification>\r\n'
p2385
tp2386
a(S'        <Target_Identification>\r\n'
p2387
S'            <name>Zeta Orionis</name>\r\n'
p2388
S'            <alternate_designation>Zeta Ori</alternate_designation>\r\n'
p2389
S'            <type>Star</type>\r\n'
p2390
S'            <Internal_Reference>\r\n'
p2391
S'                <lid_reference>urn:nasa:pds:context:target:star.zet_ori</lid_reference>\r\n'
p2392
S'                <reference_type>data_to_target</reference_type>\r\n'
p2393
S'            </Internal_Reference>\r\n'
p2394
S'        </Target_Identification>\r\n'
p2395
tp2396
a(S'        <Target_Identification>\r\n'
p2397
S'            <name>Zeta Persei</name>\r\n'
p2398
S'            <alternate_designation>Zeta Per</alternate_designation>\r\n'
p2399
S'            <type>Star</type>\r\n'
p2400
S'            <Internal_Reference>\r\n'
p2401
S'                <lid_reference>urn:nasa:pds:context:target:star.zet_per</lid_reference>\r\n'
p2402
S'                <reference_type>data_to_target</reference_type>\r\n'
p2403
S'            </Internal_Reference>\r\n'
p2404
S'        </Target_Identification>\r\n'
p2405
tp2406
a.